
sys.bin:     file format elf32-littlemips


Disassembly of section seg_reset:

bfc00000 <reset>:
bfc00000:	3c1d0200 	lui	sp,0x200
bfc00004:	27bd0000 	addiu	sp,sp,0
bfc00008:	401c7801 	mfc0	gp,$15,1
bfc0000c:	279c0001 	addiu	gp,gp,1
bfc00010:	001ce400 	sll	gp,gp,0x10
bfc00014:	03bce821 	addu	sp,sp,gp
bfc00018:	341aff13 	li	k0,0xff13
bfc0001c:	409a6000 	mtc0	k0,c0_status
bfc00020:	3c1a0100 	lui	k0,0x100
bfc00024:	275a0000 	addiu	k0,k0,0
bfc00028:	8f5a0000 	lw	k0,0(k0)
bfc0002c:	409a7000 	mtc0	k0,c0_epc
bfc00030:	42000018 	eret

Disassembly of section seg_kcode:

80000000 <_giet-0x180>:
	...

80000180 <_giet>:
80000180:	401b6800 	mfc0	k1,c0_cause
80000184:	3c1a8200 	lui	k0,0x8200
80000188:	275a00d0 	addiu	k0,k0,208
8000018c:	337b003c 	andi	k1,k1,0x3c
80000190:	035bd021 	addu	k0,k0,k1
80000194:	8f5a0000 	lw	k0,0(k0)
80000198:	03400008 	jr	k0
8000019c:	00000000 	nop

800001a0 <_sys_handler>:
800001a0:	27bdffe8 	addiu	sp,sp,-24
800001a4:	401a6000 	mfc0	k0,c0_status
800001a8:	afba0010 	sw	k0,16(sp)
800001ac:	401b7000 	mfc0	k1,c0_epc
800001b0:	277b0004 	addiu	k1,k1,4
800001b4:	afbb0014 	sw	k1,20(sp)
800001b8:	305a001f 	andi	k0,v0,0x1f
800001bc:	001ad080 	sll	k0,k0,0x2
800001c0:	3c1b8200 	lui	k1,0x8200
800001c4:	277b029c 	addiu	k1,k1,668
800001c8:	037ad821 	addu	k1,k1,k0
800001cc:	8f630000 	lw	v1,0(k1)
800001d0:	241bffed 	li	k1,-19
800001d4:	401a6000 	mfc0	k0,c0_status
800001d8:	035bd024 	and	k0,k0,k1
800001dc:	0060f809 	jalr	v1
800001e0:	409a6000 	mtc0	k0,c0_status
800001e4:	40806000 	mtc0	zero,c0_status
800001e8:	8fba0010 	lw	k0,16(sp)
800001ec:	409a6000 	mtc0	k0,c0_status
800001f0:	8fba0014 	lw	k0,20(sp)
800001f4:	409a7000 	mtc0	k0,c0_epc
800001f8:	27bd0018 	addiu	sp,sp,24
800001fc:	42000018 	eret

80000200 <_int_handler>:
80000200:	27bdff9c 	addiu	sp,sp,-100
80000204:	afa10010 	sw	at,16(sp)
80000208:	afa20014 	sw	v0,20(sp)
8000020c:	afa30018 	sw	v1,24(sp)
80000210:	afa4001c 	sw	a0,28(sp)
80000214:	afa50020 	sw	a1,32(sp)
80000218:	afa60024 	sw	a2,36(sp)
8000021c:	afa70028 	sw	a3,40(sp)
80000220:	afa8002c 	sw	t0,44(sp)
80000224:	afa90030 	sw	t1,48(sp)
80000228:	afaa0034 	sw	t2,52(sp)
8000022c:	afab0038 	sw	t3,56(sp)
80000230:	afac003c 	sw	t4,60(sp)
80000234:	afad0040 	sw	t5,64(sp)
80000238:	afae0044 	sw	t6,68(sp)
8000023c:	afaf0048 	sw	t7,72(sp)
80000240:	afb8004c 	sw	t8,76(sp)
80000244:	afb90050 	sw	t9,80(sp)
80000248:	afbf0054 	sw	ra,84(sp)
8000024c:	0000d012 	mflo	k0
80000250:	afba0058 	sw	k0,88(sp)
80000254:	0000d010 	mfhi	k0
80000258:	afba005c 	sw	k0,92(sp)
8000025c:	401b7000 	mfc0	k1,c0_epc
80000260:	afbb0060 	sw	k1,96(sp)
80000264:	3c1a8000 	lui	k0,0x8000
80000268:	275a1a80 	addiu	k0,k0,6784
8000026c:	0340f809 	jalr	k0
80000270:	00000000 	nop

80000274 <restore>:
80000274:	8fa10010 	lw	at,16(sp)
80000278:	8fa20014 	lw	v0,20(sp)
8000027c:	8fa30018 	lw	v1,24(sp)
80000280:	8fa4001c 	lw	a0,28(sp)
80000284:	8fa50020 	lw	a1,32(sp)
80000288:	8fa60024 	lw	a2,36(sp)
8000028c:	8fa70028 	lw	a3,40(sp)
80000290:	8fa8002c 	lw	t0,44(sp)
80000294:	8fa90030 	lw	t1,48(sp)
80000298:	8faa0034 	lw	t2,52(sp)
8000029c:	8fab0038 	lw	t3,56(sp)
800002a0:	8fac003c 	lw	t4,60(sp)
800002a4:	8fad0040 	lw	t5,64(sp)
800002a8:	8fae0044 	lw	t6,68(sp)
800002ac:	8faf0048 	lw	t7,72(sp)
800002b0:	8fb8004c 	lw	t8,76(sp)
800002b4:	8fb90050 	lw	t9,80(sp)
800002b8:	8fbf0054 	lw	ra,84(sp)
800002bc:	8fba0058 	lw	k0,88(sp)
800002c0:	03400013 	mtlo	k0
800002c4:	8fba005c 	lw	k0,92(sp)
800002c8:	03400011 	mthi	k0
800002cc:	8fbb0060 	lw	k1,96(sp)
800002d0:	27bd0064 	addiu	sp,sp,100
800002d4:	409b7000 	mtc0	k1,c0_epc
800002d8:	42000018 	eret

800002dc <_task_switch>:
800002dc:	0080d820 	add	k1,a0,zero
800002e0:	401a6000 	mfc0	k0,c0_status
800002e4:	af7a0000 	sw	k0,0(k1)
800002e8:	af610004 	sw	at,4(k1)
800002ec:	af620008 	sw	v0,8(k1)
800002f0:	af63000c 	sw	v1,12(k1)
800002f4:	af640010 	sw	a0,16(k1)
800002f8:	af650014 	sw	a1,20(k1)
800002fc:	af660018 	sw	a2,24(k1)
80000300:	af67001c 	sw	a3,28(k1)
80000304:	af680020 	sw	t0,32(k1)
80000308:	af690024 	sw	t1,36(k1)
8000030c:	af6a0028 	sw	t2,40(k1)
80000310:	af6b002c 	sw	t3,44(k1)
80000314:	af6c0030 	sw	t4,48(k1)
80000318:	af6d0034 	sw	t5,52(k1)
8000031c:	af6e0038 	sw	t6,56(k1)
80000320:	af6f003c 	sw	t7,60(k1)
80000324:	af700040 	sw	s0,64(k1)
80000328:	af710044 	sw	s1,68(k1)
8000032c:	af720048 	sw	s2,72(k1)
80000330:	af73004c 	sw	s3,76(k1)
80000334:	af740050 	sw	s4,80(k1)
80000338:	af750054 	sw	s5,84(k1)
8000033c:	af760058 	sw	s6,88(k1)
80000340:	af77005c 	sw	s7,92(k1)
80000344:	af780060 	sw	t8,96(k1)
80000348:	af790064 	sw	t9,100(k1)
8000034c:	af7c0070 	sw	gp,112(k1)
80000350:	af7d0074 	sw	sp,116(k1)
80000354:	af7e0078 	sw	s8,120(k1)
80000358:	af7f007c 	sw	ra,124(k1)
8000035c:	401a7000 	mfc0	k0,c0_epc
80000360:	af7a0080 	sw	k0,128(k1)
80000364:	401a6800 	mfc0	k0,c0_cause
80000368:	af7a0084 	sw	k0,132(k1)
8000036c:	00a0d820 	add	k1,a1,zero
80000370:	8f7a0000 	lw	k0,0(k1)
80000374:	409a6000 	mtc0	k0,c0_status
80000378:	8f610004 	lw	at,4(k1)
8000037c:	8f620008 	lw	v0,8(k1)
80000380:	8f63000c 	lw	v1,12(k1)
80000384:	8f640010 	lw	a0,16(k1)
80000388:	8f650014 	lw	a1,20(k1)
8000038c:	8f660018 	lw	a2,24(k1)
80000390:	8f67001c 	lw	a3,28(k1)
80000394:	8f680020 	lw	t0,32(k1)
80000398:	8f690024 	lw	t1,36(k1)
8000039c:	8f6a0028 	lw	t2,40(k1)
800003a0:	8f6b002c 	lw	t3,44(k1)
800003a4:	8f6c0030 	lw	t4,48(k1)
800003a8:	8f6d0034 	lw	t5,52(k1)
800003ac:	8f6e0038 	lw	t6,56(k1)
800003b0:	8f6f003c 	lw	t7,60(k1)
800003b4:	8f700040 	lw	s0,64(k1)
800003b8:	8f710044 	lw	s1,68(k1)
800003bc:	8f720048 	lw	s2,72(k1)
800003c0:	8f73004c 	lw	s3,76(k1)
800003c4:	8f740050 	lw	s4,80(k1)
800003c8:	8f750054 	lw	s5,84(k1)
800003cc:	8f760058 	lw	s6,88(k1)
800003d0:	8f77005c 	lw	s7,92(k1)
800003d4:	8f780060 	lw	t8,96(k1)
800003d8:	8f790064 	lw	t9,100(k1)
800003dc:	8f7c0070 	lw	gp,112(k1)
800003e0:	8f7d0074 	lw	sp,116(k1)
800003e4:	8f7e0078 	lw	s8,120(k1)
800003e8:	8f7f007c 	lw	ra,124(k1)
800003ec:	8f7a0080 	lw	k0,128(k1)
800003f0:	409a7000 	mtc0	k0,c0_epc
800003f4:	8f7a0084 	lw	k0,132(k1)
800003f8:	03e00008 	jr	ra
800003fc:	409a6800 	mtc0	k0,c0_cause

80000400 <_procid>:
80000400:	27bdfff0 	addiu	sp,sp,-16
80000404:	afbe000c 	sw	s8,12(sp)
80000408:	03a0f021 	move	s8,sp
8000040c:	40027801 	mfc0	v0,$15,1
80000410:	afc20000 	sw	v0,0(s8)
80000414:	8fc20000 	lw	v0,0(s8)
80000418:	304203ff 	andi	v0,v0,0x3ff
8000041c:	03c0e821 	move	sp,s8
80000420:	8fbe000c 	lw	s8,12(sp)
80000424:	03e00008 	jr	ra
80000428:	27bd0010 	addiu	sp,sp,16

8000042c <_proctime>:
8000042c:	27bdfff0 	addiu	sp,sp,-16
80000430:	afbe000c 	sw	s8,12(sp)
80000434:	03a0f021 	move	s8,sp
80000438:	40024800 	mfc0	v0,c0_count
8000043c:	afc20000 	sw	v0,0(s8)
80000440:	8fc20000 	lw	v0,0(s8)
80000444:	03c0e821 	move	sp,s8
80000448:	8fbe000c 	lw	s8,12(sp)
8000044c:	03e00008 	jr	ra
80000450:	27bd0010 	addiu	sp,sp,16

80000454 <_timer_write>:
80000454:	27bdffd8 	addiu	sp,sp,-40
80000458:	afbf0024 	sw	ra,36(sp)
8000045c:	afbe0020 	sw	s8,32(sp)
80000460:	03a0f021 	move	s8,sp
80000464:	afc40028 	sw	a0,40(s8)
80000468:	afc5002c 	sw	a1,44(s8)
8000046c:	8fc20028 	lw	v0,40(s8)
80000470:	2c420004 	sltiu	v0,v0,4
80000474:	14400005 	bnez	v0,8000048c <_timer_write+0x38>
80000478:	00000000 	nop
8000047c:	24020001 	li	v0,1
80000480:	afc20018 	sw	v0,24(s8)
80000484:	08000133 	j	800004cc <_timer_write+0x78>
80000488:	00000000 	nop
8000048c:	0c000100 	jal	80000400 <_procid>
80000490:	00000000 	nop
80000494:	afc20010 	sw	v0,16(s8)
80000498:	3c029100 	lui	v0,0x9100
8000049c:	24430000 	addiu	v1,v0,0
800004a0:	8fc20010 	lw	v0,16(s8)
800004a4:	00021100 	sll	v0,v0,0x4
800004a8:	00621021 	addu	v0,v1,v0
800004ac:	afc20014 	sw	v0,20(s8)
800004b0:	8fc20028 	lw	v0,40(s8)
800004b4:	00021880 	sll	v1,v0,0x2
800004b8:	8fc20014 	lw	v0,20(s8)
800004bc:	00431821 	addu	v1,v0,v1
800004c0:	8fc2002c 	lw	v0,44(s8)
800004c4:	ac620000 	sw	v0,0(v1)
800004c8:	afc00018 	sw	zero,24(s8)
800004cc:	8fc20018 	lw	v0,24(s8)
800004d0:	03c0e821 	move	sp,s8
800004d4:	8fbf0024 	lw	ra,36(sp)
800004d8:	8fbe0020 	lw	s8,32(sp)
800004dc:	27bd0028 	addiu	sp,sp,40
800004e0:	03e00008 	jr	ra
800004e4:	00000000 	nop

800004e8 <_timer_read>:
800004e8:	27bdffd8 	addiu	sp,sp,-40
800004ec:	afbf0024 	sw	ra,36(sp)
800004f0:	afbe0020 	sw	s8,32(sp)
800004f4:	03a0f021 	move	s8,sp
800004f8:	afc40028 	sw	a0,40(s8)
800004fc:	afc5002c 	sw	a1,44(s8)
80000500:	8fc20028 	lw	v0,40(s8)
80000504:	2c420004 	sltiu	v0,v0,4
80000508:	14400005 	bnez	v0,80000520 <_timer_read+0x38>
8000050c:	00000000 	nop
80000510:	24020001 	li	v0,1
80000514:	afc20018 	sw	v0,24(s8)
80000518:	08000159 	j	80000564 <_timer_read+0x7c>
8000051c:	00000000 	nop
80000520:	0c000100 	jal	80000400 <_procid>
80000524:	00000000 	nop
80000528:	afc20010 	sw	v0,16(s8)
8000052c:	3c029100 	lui	v0,0x9100
80000530:	24430000 	addiu	v1,v0,0
80000534:	8fc20010 	lw	v0,16(s8)
80000538:	00021100 	sll	v0,v0,0x4
8000053c:	00621021 	addu	v0,v1,v0
80000540:	afc20014 	sw	v0,20(s8)
80000544:	8fc20028 	lw	v0,40(s8)
80000548:	00021880 	sll	v1,v0,0x2
8000054c:	8fc20014 	lw	v0,20(s8)
80000550:	00431021 	addu	v0,v0,v1
80000554:	8c430000 	lw	v1,0(v0)
80000558:	8fc2002c 	lw	v0,44(s8)
8000055c:	ac430000 	sw	v1,0(v0)
80000560:	afc00018 	sw	zero,24(s8)
80000564:	8fc20018 	lw	v0,24(s8)
80000568:	03c0e821 	move	sp,s8
8000056c:	8fbf0024 	lw	ra,36(sp)
80000570:	8fbe0020 	lw	s8,32(sp)
80000574:	27bd0028 	addiu	sp,sp,40
80000578:	03e00008 	jr	ra
8000057c:	00000000 	nop

80000580 <_tty_config>:
80000580:	27bdfff0 	addiu	sp,sp,-16
80000584:	afbe000c 	sw	s8,12(sp)
80000588:	03a0f021 	move	s8,sp
8000058c:	afc40010 	sw	a0,16(s8)
80000590:	afc50014 	sw	a1,20(s8)
80000594:	afc60018 	sw	a2,24(s8)
80000598:	8fc20018 	lw	v0,24(s8)
8000059c:	10400004 	beqz	v0,800005b0 <_tty_config+0x30>
800005a0:	00000000 	nop
800005a4:	afc00000 	sw	zero,0(s8)
800005a8:	08000182 	j	80000608 <_tty_config+0x88>
800005ac:	00000000 	nop
800005b0:	8fc20014 	lw	v0,20(s8)
800005b4:	2c420002 	sltiu	v0,v0,2
800005b8:	14400004 	bnez	v0,800005cc <_tty_config+0x4c>
800005bc:	00000000 	nop
800005c0:	afc00000 	sw	zero,0(s8)
800005c4:	08000182 	j	80000608 <_tty_config+0x88>
800005c8:	00000000 	nop
800005cc:	8fc30014 	lw	v1,20(s8)
800005d0:	8fc20018 	lw	v0,24(s8)
800005d4:	00621021 	addu	v0,v1,v0
800005d8:	00021180 	sll	v0,v0,0x6
800005dc:	24440022 	addiu	a0,v0,34
800005e0:	8fc30010 	lw	v1,16(s8)
800005e4:	3c028000 	lui	v0,0x8000
800005e8:	00622821 	addu	a1,v1,v0
800005ec:	3c028200 	lui	v0,0x8200
800005f0:	00041880 	sll	v1,a0,0x2
800005f4:	244203c0 	addiu	v0,v0,960
800005f8:	00621021 	addu	v0,v1,v0
800005fc:	ac450000 	sw	a1,0(v0)
80000600:	24020001 	li	v0,1
80000604:	afc20000 	sw	v0,0(s8)
80000608:	8fc20000 	lw	v0,0(s8)
8000060c:	03c0e821 	move	sp,s8
80000610:	8fbe000c 	lw	s8,12(sp)
80000614:	27bd0010 	addiu	sp,sp,16
80000618:	03e00008 	jr	ra
8000061c:	00000000 	nop

80000620 <_tty_write>:
80000620:	27bdffd0 	addiu	sp,sp,-48
80000624:	afbf002c 	sw	ra,44(sp)
80000628:	afbe0028 	sw	s8,40(sp)
8000062c:	03a0f021 	move	s8,sp
80000630:	afc40030 	sw	a0,48(s8)
80000634:	afc50034 	sw	a1,52(s8)
80000638:	0c000100 	jal	80000400 <_procid>
8000063c:	00000000 	nop
80000640:	afc2001c 	sw	v0,28(s8)
80000644:	8fc3001c 	lw	v1,28(s8)
80000648:	3c028200 	lui	v0,0x8200
8000064c:	244205c0 	addiu	v0,v0,1472
80000650:	00621021 	addu	v0,v1,v0
80000654:	90420000 	lbu	v0,0(v0)
80000658:	afc20018 	sw	v0,24(s8)
8000065c:	8fc3001c 	lw	v1,28(s8)
80000660:	8fc20018 	lw	v0,24(s8)
80000664:	00621021 	addu	v0,v1,v0
80000668:	00021180 	sll	v0,v0,0x6
8000066c:	24420022 	addiu	v0,v0,34
80000670:	3c038200 	lui	v1,0x8200
80000674:	00022080 	sll	a0,v0,0x2
80000678:	246203c0 	addiu	v0,v1,960
8000067c:	00821021 	addu	v0,a0,v0
80000680:	8c420000 	lw	v0,0(v0)
80000684:	afc20014 	sw	v0,20(s8)
80000688:	8fc20014 	lw	v0,20(s8)
8000068c:	14400007 	bnez	v0,800006ac <_tty_write+0x8c>
80000690:	00000000 	nop
80000694:	8fc2001c 	lw	v0,28(s8)
80000698:	8fc30018 	lw	v1,24(s8)
8000069c:	00431021 	addu	v0,v0,v1
800006a0:	afc20014 	sw	v0,20(s8)
800006a4:	080001af 	j	800006bc <_tty_write+0x9c>
800006a8:	00000000 	nop
800006ac:	8fc20014 	lw	v0,20(s8)
800006b0:	3c038000 	lui	v1,0x8000
800006b4:	00431021 	addu	v0,v0,v1
800006b8:	afc20014 	sw	v0,20(s8)
800006bc:	3c029000 	lui	v0,0x9000
800006c0:	24430000 	addiu	v1,v0,0
800006c4:	8fc20014 	lw	v0,20(s8)
800006c8:	00021100 	sll	v0,v0,0x4
800006cc:	00621021 	addu	v0,v1,v0
800006d0:	afc20020 	sw	v0,32(s8)
800006d4:	afc00010 	sw	zero,16(s8)
800006d8:	080001c8 	j	80000720 <_tty_write+0x100>
800006dc:	00000000 	nop
800006e0:	8fc20020 	lw	v0,32(s8)
800006e4:	24420004 	addiu	v0,v0,4
800006e8:	8c420000 	lw	v0,0(v0)
800006ec:	30420002 	andi	v0,v0,0x2
800006f0:	14400010 	bnez	v0,80000734 <_tty_write+0x114>
800006f4:	00000000 	nop
800006f8:	8fc30030 	lw	v1,48(s8)
800006fc:	8fc20010 	lw	v0,16(s8)
80000700:	00621021 	addu	v0,v1,v0
80000704:	80420000 	lb	v0,0(v0)
80000708:	00401821 	move	v1,v0
8000070c:	8fc20020 	lw	v0,32(s8)
80000710:	ac430000 	sw	v1,0(v0)
80000714:	8fc20010 	lw	v0,16(s8)
80000718:	24420001 	addiu	v0,v0,1
8000071c:	afc20010 	sw	v0,16(s8)
80000720:	8fc20010 	lw	v0,16(s8)
80000724:	8fc30034 	lw	v1,52(s8)
80000728:	0043102b 	sltu	v0,v0,v1
8000072c:	1440ffec 	bnez	v0,800006e0 <_tty_write+0xc0>
80000730:	00000000 	nop
80000734:	8fc20010 	lw	v0,16(s8)
80000738:	03c0e821 	move	sp,s8
8000073c:	8fbf002c 	lw	ra,44(sp)
80000740:	8fbe0028 	lw	s8,40(sp)
80000744:	27bd0030 	addiu	sp,sp,48
80000748:	03e00008 	jr	ra
8000074c:	00000000 	nop

80000750 <_tty_read_irq>:
80000750:	27bdffd0 	addiu	sp,sp,-48
80000754:	afbf002c 	sw	ra,44(sp)
80000758:	afbe0028 	sw	s8,40(sp)
8000075c:	03a0f021 	move	s8,sp
80000760:	afc40030 	sw	a0,48(s8)
80000764:	afc50034 	sw	a1,52(s8)
80000768:	0c000100 	jal	80000400 <_procid>
8000076c:	00000000 	nop
80000770:	afc20018 	sw	v0,24(s8)
80000774:	8fc30018 	lw	v1,24(s8)
80000778:	3c028200 	lui	v0,0x8200
8000077c:	244205c0 	addiu	v0,v0,1472
80000780:	00621021 	addu	v0,v1,v0
80000784:	90420000 	lbu	v0,0(v0)
80000788:	afc20014 	sw	v0,20(s8)
8000078c:	8fc30018 	lw	v1,24(s8)
80000790:	8fc20014 	lw	v0,20(s8)
80000794:	00621021 	addu	v0,v1,v0
80000798:	00021180 	sll	v0,v0,0x6
8000079c:	24420022 	addiu	v0,v0,34
800007a0:	3c038200 	lui	v1,0x8200
800007a4:	00022080 	sll	a0,v0,0x2
800007a8:	246203c0 	addiu	v0,v1,960
800007ac:	00821021 	addu	v0,a0,v0
800007b0:	8c420000 	lw	v0,0(v0)
800007b4:	afc20010 	sw	v0,16(s8)
800007b8:	8fc20010 	lw	v0,16(s8)
800007bc:	14400007 	bnez	v0,800007dc <_tty_read_irq+0x8c>
800007c0:	00000000 	nop
800007c4:	8fc20018 	lw	v0,24(s8)
800007c8:	8fc30014 	lw	v1,20(s8)
800007cc:	00431021 	addu	v0,v0,v1
800007d0:	afc20010 	sw	v0,16(s8)
800007d4:	080001fb 	j	800007ec <_tty_read_irq+0x9c>
800007d8:	00000000 	nop
800007dc:	8fc20010 	lw	v0,16(s8)
800007e0:	3c038000 	lui	v1,0x8000
800007e4:	00431021 	addu	v0,v0,v1
800007e8:	afc20010 	sw	v0,16(s8)
800007ec:	8fc30010 	lw	v1,16(s8)
800007f0:	3c028100 	lui	v0,0x8100
800007f4:	24420008 	addiu	v0,v0,8
800007f8:	00621021 	addu	v0,v1,v0
800007fc:	90420000 	lbu	v0,0(v0)
80000800:	304200ff 	andi	v0,v0,0xff
80000804:	14400004 	bnez	v0,80000818 <_tty_read_irq+0xc8>
80000808:	00000000 	nop
8000080c:	afc00020 	sw	zero,32(s8)
80000810:	08000217 	j	8000085c <_tty_read_irq+0x10c>
80000814:	00000000 	nop
80000818:	8fc30010 	lw	v1,16(s8)
8000081c:	3c028100 	lui	v0,0x8100
80000820:	24420018 	addiu	v0,v0,24
80000824:	00621021 	addu	v0,v1,v0
80000828:	90420000 	lbu	v0,0(v0)
8000082c:	304200ff 	andi	v0,v0,0xff
80000830:	00021e00 	sll	v1,v0,0x18
80000834:	00031e03 	sra	v1,v1,0x18
80000838:	8fc20030 	lw	v0,48(s8)
8000083c:	a0430000 	sb	v1,0(v0)
80000840:	8fc30010 	lw	v1,16(s8)
80000844:	3c028100 	lui	v0,0x8100
80000848:	24420008 	addiu	v0,v0,8
8000084c:	00621021 	addu	v0,v1,v0
80000850:	a0400000 	sb	zero,0(v0)
80000854:	24020001 	li	v0,1
80000858:	afc20020 	sw	v0,32(s8)
8000085c:	8fc20020 	lw	v0,32(s8)
80000860:	03c0e821 	move	sp,s8
80000864:	8fbf002c 	lw	ra,44(sp)
80000868:	8fbe0028 	lw	s8,40(sp)
8000086c:	27bd0030 	addiu	sp,sp,48
80000870:	03e00008 	jr	ra
80000874:	00000000 	nop

80000878 <_tty_read>:
80000878:	27bdffd0 	addiu	sp,sp,-48
8000087c:	afbf002c 	sw	ra,44(sp)
80000880:	afbe0028 	sw	s8,40(sp)
80000884:	03a0f021 	move	s8,sp
80000888:	afc40030 	sw	a0,48(s8)
8000088c:	afc50034 	sw	a1,52(s8)
80000890:	0c000100 	jal	80000400 <_procid>
80000894:	00000000 	nop
80000898:	afc20018 	sw	v0,24(s8)
8000089c:	8fc30018 	lw	v1,24(s8)
800008a0:	3c028200 	lui	v0,0x8200
800008a4:	244205c0 	addiu	v0,v0,1472
800008a8:	00621021 	addu	v0,v1,v0
800008ac:	90420000 	lbu	v0,0(v0)
800008b0:	afc20014 	sw	v0,20(s8)
800008b4:	8fc30018 	lw	v1,24(s8)
800008b8:	8fc20014 	lw	v0,20(s8)
800008bc:	00621021 	addu	v0,v1,v0
800008c0:	00021180 	sll	v0,v0,0x6
800008c4:	24420022 	addiu	v0,v0,34
800008c8:	3c038200 	lui	v1,0x8200
800008cc:	00022080 	sll	a0,v0,0x2
800008d0:	246203c0 	addiu	v0,v1,960
800008d4:	00821021 	addu	v0,a0,v0
800008d8:	8c420000 	lw	v0,0(v0)
800008dc:	afc20010 	sw	v0,16(s8)
800008e0:	8fc20010 	lw	v0,16(s8)
800008e4:	14400007 	bnez	v0,80000904 <_tty_read+0x8c>
800008e8:	00000000 	nop
800008ec:	8fc20018 	lw	v0,24(s8)
800008f0:	8fc30014 	lw	v1,20(s8)
800008f4:	00431021 	addu	v0,v0,v1
800008f8:	afc20010 	sw	v0,16(s8)
800008fc:	08000245 	j	80000914 <_tty_read+0x9c>
80000900:	00000000 	nop
80000904:	8fc20010 	lw	v0,16(s8)
80000908:	3c038000 	lui	v1,0x8000
8000090c:	00431021 	addu	v0,v0,v1
80000910:	afc20010 	sw	v0,16(s8)
80000914:	3c029000 	lui	v0,0x9000
80000918:	24430000 	addiu	v1,v0,0
8000091c:	8fc20010 	lw	v0,16(s8)
80000920:	00021100 	sll	v0,v0,0x4
80000924:	00621021 	addu	v0,v1,v0
80000928:	afc2001c 	sw	v0,28(s8)
8000092c:	8fc2001c 	lw	v0,28(s8)
80000930:	24420004 	addiu	v0,v0,4
80000934:	8c420000 	lw	v0,0(v0)
80000938:	30420001 	andi	v0,v0,0x1
8000093c:	14400004 	bnez	v0,80000950 <_tty_read+0xd8>
80000940:	00000000 	nop
80000944:	afc00020 	sw	zero,32(s8)
80000948:	0800025d 	j	80000974 <_tty_read+0xfc>
8000094c:	00000000 	nop
80000950:	8fc2001c 	lw	v0,28(s8)
80000954:	24420008 	addiu	v0,v0,8
80000958:	8c420000 	lw	v0,0(v0)
8000095c:	00021e00 	sll	v1,v0,0x18
80000960:	00031e03 	sra	v1,v1,0x18
80000964:	8fc20030 	lw	v0,48(s8)
80000968:	a0430000 	sb	v1,0(v0)
8000096c:	24020001 	li	v0,1
80000970:	afc20020 	sw	v0,32(s8)
80000974:	8fc20020 	lw	v0,32(s8)
80000978:	03c0e821 	move	sp,s8
8000097c:	8fbf002c 	lw	ra,44(sp)
80000980:	8fbe0028 	lw	s8,40(sp)
80000984:	27bd0030 	addiu	sp,sp,48
80000988:	03e00008 	jr	ra
8000098c:	00000000 	nop

80000990 <_icu_write>:
80000990:	27bdffd8 	addiu	sp,sp,-40
80000994:	afbf0024 	sw	ra,36(sp)
80000998:	afbe0020 	sw	s8,32(sp)
8000099c:	03a0f021 	move	s8,sp
800009a0:	afc40028 	sw	a0,40(s8)
800009a4:	afc5002c 	sw	a1,44(s8)
800009a8:	8fc20028 	lw	v0,40(s8)
800009ac:	2c420005 	sltiu	v0,v0,5
800009b0:	14400005 	bnez	v0,800009c8 <_icu_write+0x38>
800009b4:	00000000 	nop
800009b8:	24020001 	li	v0,1
800009bc:	afc20018 	sw	v0,24(s8)
800009c0:	08000282 	j	80000a08 <_icu_write+0x78>
800009c4:	00000000 	nop
800009c8:	0c000100 	jal	80000400 <_procid>
800009cc:	00000000 	nop
800009d0:	afc20010 	sw	v0,16(s8)
800009d4:	3c029f00 	lui	v0,0x9f00
800009d8:	24430000 	addiu	v1,v0,0
800009dc:	8fc20010 	lw	v0,16(s8)
800009e0:	00021140 	sll	v0,v0,0x5
800009e4:	00621021 	addu	v0,v1,v0
800009e8:	afc20014 	sw	v0,20(s8)
800009ec:	8fc20028 	lw	v0,40(s8)
800009f0:	00021880 	sll	v1,v0,0x2
800009f4:	8fc20014 	lw	v0,20(s8)
800009f8:	00431821 	addu	v1,v0,v1
800009fc:	8fc2002c 	lw	v0,44(s8)
80000a00:	ac620000 	sw	v0,0(v1)
80000a04:	afc00018 	sw	zero,24(s8)
80000a08:	8fc20018 	lw	v0,24(s8)
80000a0c:	03c0e821 	move	sp,s8
80000a10:	8fbf0024 	lw	ra,36(sp)
80000a14:	8fbe0020 	lw	s8,32(sp)
80000a18:	27bd0028 	addiu	sp,sp,40
80000a1c:	03e00008 	jr	ra
80000a20:	00000000 	nop

80000a24 <_icu_read>:
80000a24:	27bdffd8 	addiu	sp,sp,-40
80000a28:	afbf0024 	sw	ra,36(sp)
80000a2c:	afbe0020 	sw	s8,32(sp)
80000a30:	03a0f021 	move	s8,sp
80000a34:	afc40028 	sw	a0,40(s8)
80000a38:	afc5002c 	sw	a1,44(s8)
80000a3c:	8fc20028 	lw	v0,40(s8)
80000a40:	2c420005 	sltiu	v0,v0,5
80000a44:	14400005 	bnez	v0,80000a5c <_icu_read+0x38>
80000a48:	00000000 	nop
80000a4c:	24020001 	li	v0,1
80000a50:	afc20018 	sw	v0,24(s8)
80000a54:	080002a8 	j	80000aa0 <_icu_read+0x7c>
80000a58:	00000000 	nop
80000a5c:	0c000100 	jal	80000400 <_procid>
80000a60:	00000000 	nop
80000a64:	afc20010 	sw	v0,16(s8)
80000a68:	3c029f00 	lui	v0,0x9f00
80000a6c:	24430000 	addiu	v1,v0,0
80000a70:	8fc20010 	lw	v0,16(s8)
80000a74:	00021140 	sll	v0,v0,0x5
80000a78:	00621021 	addu	v0,v1,v0
80000a7c:	afc20014 	sw	v0,20(s8)
80000a80:	8fc20028 	lw	v0,40(s8)
80000a84:	00021880 	sll	v1,v0,0x2
80000a88:	8fc20014 	lw	v0,20(s8)
80000a8c:	00431021 	addu	v0,v0,v1
80000a90:	8c430000 	lw	v1,0(v0)
80000a94:	8fc2002c 	lw	v0,44(s8)
80000a98:	ac430000 	sw	v1,0(v0)
80000a9c:	afc00018 	sw	zero,24(s8)
80000aa0:	8fc20018 	lw	v0,24(s8)
80000aa4:	03c0e821 	move	sp,s8
80000aa8:	8fbf0024 	lw	ra,36(sp)
80000aac:	8fbe0020 	lw	s8,32(sp)
80000ab0:	27bd0028 	addiu	sp,sp,40
80000ab4:	03e00008 	jr	ra
80000ab8:	00000000 	nop

80000abc <_gcd_write>:
80000abc:	27bdffe8 	addiu	sp,sp,-24
80000ac0:	afbe0014 	sw	s8,20(sp)
80000ac4:	03a0f021 	move	s8,sp
80000ac8:	afc40018 	sw	a0,24(s8)
80000acc:	afc5001c 	sw	a1,28(s8)
80000ad0:	8fc20018 	lw	v0,24(s8)
80000ad4:	2c420004 	sltiu	v0,v0,4
80000ad8:	14400005 	bnez	v0,80000af0 <_gcd_write+0x34>
80000adc:	00000000 	nop
80000ae0:	24020001 	li	v0,1
80000ae4:	afc20008 	sw	v0,8(s8)
80000ae8:	080002c6 	j	80000b18 <_gcd_write+0x5c>
80000aec:	00000000 	nop
80000af0:	3c029500 	lui	v0,0x9500
80000af4:	24420000 	addiu	v0,v0,0
80000af8:	afc20000 	sw	v0,0(s8)
80000afc:	8fc20018 	lw	v0,24(s8)
80000b00:	00021880 	sll	v1,v0,0x2
80000b04:	8fc20000 	lw	v0,0(s8)
80000b08:	00431821 	addu	v1,v0,v1
80000b0c:	8fc2001c 	lw	v0,28(s8)
80000b10:	ac620000 	sw	v0,0(v1)
80000b14:	afc00008 	sw	zero,8(s8)
80000b18:	8fc20008 	lw	v0,8(s8)
80000b1c:	03c0e821 	move	sp,s8
80000b20:	8fbe0014 	lw	s8,20(sp)
80000b24:	27bd0018 	addiu	sp,sp,24
80000b28:	03e00008 	jr	ra
80000b2c:	00000000 	nop

80000b30 <_gcd_read>:
80000b30:	27bdffe8 	addiu	sp,sp,-24
80000b34:	afbe0014 	sw	s8,20(sp)
80000b38:	03a0f021 	move	s8,sp
80000b3c:	afc40018 	sw	a0,24(s8)
80000b40:	afc5001c 	sw	a1,28(s8)
80000b44:	8fc20018 	lw	v0,24(s8)
80000b48:	2c420004 	sltiu	v0,v0,4
80000b4c:	14400005 	bnez	v0,80000b64 <_gcd_read+0x34>
80000b50:	00000000 	nop
80000b54:	24020001 	li	v0,1
80000b58:	afc20008 	sw	v0,8(s8)
80000b5c:	080002e4 	j	80000b90 <_gcd_read+0x60>
80000b60:	00000000 	nop
80000b64:	3c029500 	lui	v0,0x9500
80000b68:	24420000 	addiu	v0,v0,0
80000b6c:	afc20000 	sw	v0,0(s8)
80000b70:	8fc20018 	lw	v0,24(s8)
80000b74:	00021880 	sll	v1,v0,0x2
80000b78:	8fc20000 	lw	v0,0(s8)
80000b7c:	00431021 	addu	v0,v0,v1
80000b80:	8c430000 	lw	v1,0(v0)
80000b84:	8fc2001c 	lw	v0,28(s8)
80000b88:	ac430000 	sw	v1,0(v0)
80000b8c:	afc00008 	sw	zero,8(s8)
80000b90:	8fc20008 	lw	v0,8(s8)
80000b94:	03c0e821 	move	sp,s8
80000b98:	8fbe0014 	lw	s8,20(sp)
80000b9c:	27bd0018 	addiu	sp,sp,24
80000ba0:	03e00008 	jr	ra
80000ba4:	00000000 	nop

80000ba8 <_ioc_write>:
80000ba8:	27bdffd8 	addiu	sp,sp,-40
80000bac:	afbf0024 	sw	ra,36(sp)
80000bb0:	afbe0020 	sw	s8,32(sp)
80000bb4:	03a0f021 	move	s8,sp
80000bb8:	afc40028 	sw	a0,40(s8)
80000bbc:	afc5002c 	sw	a1,44(s8)
80000bc0:	afc60030 	sw	a2,48(s8)
80000bc4:	3c029200 	lui	v0,0x9200
80000bc8:	24420000 	addiu	v0,v0,0
80000bcc:	afc20014 	sw	v0,20(s8)
80000bd0:	8fc20014 	lw	v0,20(s8)
80000bd4:	2442001c 	addiu	v0,v0,28
80000bd8:	8c420000 	lw	v0,0(v0)
80000bdc:	afc20010 	sw	v0,16(s8)
80000be0:	8fc2002c 	lw	v0,44(s8)
80000be4:	04400008 	bltz	v0,80000c08 <_ioc_write+0x60>
80000be8:	00000000 	nop
80000bec:	8fc30010 	lw	v1,16(s8)
80000bf0:	8fc20030 	lw	v0,48(s8)
80000bf4:	70621802 	mul	v1,v1,v0
80000bf8:	8fc2002c 	lw	v0,44(s8)
80000bfc:	00431021 	addu	v0,v0,v1
80000c00:	04410005 	bgez	v0,80000c18 <_ioc_write+0x70>
80000c04:	00000000 	nop
80000c08:	24020001 	li	v0,1
80000c0c:	afc20018 	sw	v0,24(s8)
80000c10:	0800031c 	j	80000c70 <_ioc_write+0xc8>
80000c14:	00000000 	nop
80000c18:	0c000323 	jal	80000c8c <_ioc_get_lock>
80000c1c:	00000000 	nop
80000c20:	8fc3002c 	lw	v1,44(s8)
80000c24:	8fc20014 	lw	v0,20(s8)
80000c28:	ac430000 	sw	v1,0(v0)
80000c2c:	8fc20014 	lw	v0,20(s8)
80000c30:	24430008 	addiu	v1,v0,8
80000c34:	8fc20030 	lw	v0,48(s8)
80000c38:	ac620000 	sw	v0,0(v1)
80000c3c:	8fc20014 	lw	v0,20(s8)
80000c40:	24430004 	addiu	v1,v0,4
80000c44:	8fc20028 	lw	v0,40(s8)
80000c48:	ac620000 	sw	v0,0(v1)
80000c4c:	8fc20014 	lw	v0,20(s8)
80000c50:	24430014 	addiu	v1,v0,20
80000c54:	24020001 	li	v0,1
80000c58:	ac620000 	sw	v0,0(v1)
80000c5c:	8fc20014 	lw	v0,20(s8)
80000c60:	2443000c 	addiu	v1,v0,12
80000c64:	24020002 	li	v0,2
80000c68:	ac620000 	sw	v0,0(v1)
80000c6c:	afc00018 	sw	zero,24(s8)
80000c70:	8fc20018 	lw	v0,24(s8)
80000c74:	03c0e821 	move	sp,s8
80000c78:	8fbf0024 	lw	ra,36(sp)
80000c7c:	8fbe0020 	lw	s8,32(sp)
80000c80:	27bd0028 	addiu	sp,sp,40
80000c84:	03e00008 	jr	ra
80000c88:	00000000 	nop

80000c8c <_ioc_get_lock>:
80000c8c:	27bdfff8 	addiu	sp,sp,-8
80000c90:	afbe0004 	sw	s8,4(sp)
80000c94:	03a0f021 	move	s8,sp
80000c98:	3c028100 	lui	v0,0x8100
80000c9c:	24440004 	addiu	a0,v0,4

80000ca0 <_ioc_llsc>:
80000ca0:	c0820000 	ll	v0,0(a0)
80000ca4:	1440fffe 	bnez	v0,80000ca0 <_ioc_llsc>
80000ca8:	00000000 	nop
80000cac:	24030001 	li	v1,1
80000cb0:	e0830000 	sc	v1,0(a0)
80000cb4:	1060fffa 	beqz	v1,80000ca0 <_ioc_llsc>
80000cb8:	00000000 	nop
80000cbc:	03c0e821 	move	sp,s8
80000cc0:	8fbe0004 	lw	s8,4(sp)
80000cc4:	03e00008 	jr	ra
80000cc8:	27bd0008 	addiu	sp,sp,8

80000ccc <_ioc_read>:
80000ccc:	27bdffd8 	addiu	sp,sp,-40
80000cd0:	afbf0024 	sw	ra,36(sp)
80000cd4:	afbe0020 	sw	s8,32(sp)
80000cd8:	03a0f021 	move	s8,sp
80000cdc:	afc40028 	sw	a0,40(s8)
80000ce0:	afc5002c 	sw	a1,44(s8)
80000ce4:	afc60030 	sw	a2,48(s8)
80000ce8:	3c029200 	lui	v0,0x9200
80000cec:	24420000 	addiu	v0,v0,0
80000cf0:	afc20014 	sw	v0,20(s8)
80000cf4:	8fc20014 	lw	v0,20(s8)
80000cf8:	2442001c 	addiu	v0,v0,28
80000cfc:	8c420000 	lw	v0,0(v0)
80000d00:	afc20010 	sw	v0,16(s8)
80000d04:	8fc2002c 	lw	v0,44(s8)
80000d08:	04400008 	bltz	v0,80000d2c <_ioc_read+0x60>
80000d0c:	00000000 	nop
80000d10:	8fc30010 	lw	v1,16(s8)
80000d14:	8fc20030 	lw	v0,48(s8)
80000d18:	70621802 	mul	v1,v1,v0
80000d1c:	8fc2002c 	lw	v0,44(s8)
80000d20:	00431021 	addu	v0,v0,v1
80000d24:	04410005 	bgez	v0,80000d3c <_ioc_read+0x70>
80000d28:	00000000 	nop
80000d2c:	24020001 	li	v0,1
80000d30:	afc20018 	sw	v0,24(s8)
80000d34:	0800036c 	j	80000db0 <_ioc_read+0xe4>
80000d38:	00000000 	nop
80000d3c:	0c000323 	jal	80000c8c <_ioc_get_lock>
80000d40:	00000000 	nop
80000d44:	8fc30010 	lw	v1,16(s8)
80000d48:	8fc20030 	lw	v0,48(s8)
80000d4c:	70621002 	mul	v0,v1,v0
80000d50:	8fc4002c 	lw	a0,44(s8)
80000d54:	00402821 	move	a1,v0
80000d58:	0c00054c 	jal	80001530 <_dcache_buf_invalidate>
80000d5c:	00000000 	nop
80000d60:	8fc3002c 	lw	v1,44(s8)
80000d64:	8fc20014 	lw	v0,20(s8)
80000d68:	ac430000 	sw	v1,0(v0)
80000d6c:	8fc20014 	lw	v0,20(s8)
80000d70:	24430008 	addiu	v1,v0,8
80000d74:	8fc20030 	lw	v0,48(s8)
80000d78:	ac620000 	sw	v0,0(v1)
80000d7c:	8fc20014 	lw	v0,20(s8)
80000d80:	24430004 	addiu	v1,v0,4
80000d84:	8fc20028 	lw	v0,40(s8)
80000d88:	ac620000 	sw	v0,0(v1)
80000d8c:	8fc20014 	lw	v0,20(s8)
80000d90:	24430014 	addiu	v1,v0,20
80000d94:	24020001 	li	v0,1
80000d98:	ac620000 	sw	v0,0(v1)
80000d9c:	8fc20014 	lw	v0,20(s8)
80000da0:	2443000c 	addiu	v1,v0,12
80000da4:	24020001 	li	v0,1
80000da8:	ac620000 	sw	v0,0(v1)
80000dac:	afc00018 	sw	zero,24(s8)
80000db0:	8fc20018 	lw	v0,24(s8)
80000db4:	03c0e821 	move	sp,s8
80000db8:	8fbf0024 	lw	ra,36(sp)
80000dbc:	8fbe0020 	lw	s8,32(sp)
80000dc0:	27bd0028 	addiu	sp,sp,40
80000dc4:	03e00008 	jr	ra
80000dc8:	00000000 	nop

80000dcc <_ioc_completed>:
80000dcc:	27bdfff0 	addiu	sp,sp,-16
80000dd0:	afbe000c 	sw	s8,12(sp)
80000dd4:	08000378 	j	80000de0 <_ioc_completed+0x14>
80000dd8:	03a0f021 	move	s8,sp
80000ddc:	00000000 	nop
80000de0:	3c028100 	lui	v0,0x8100
80000de4:	90420002 	lbu	v0,2(v0)
80000de8:	304200ff 	andi	v0,v0,0xff
80000dec:	1040fffb 	beqz	v0,80000ddc <_ioc_completed+0x10>
80000df0:	00000000 	nop
80000df4:	3c028100 	lui	v0,0x8100
80000df8:	90420014 	lbu	v0,20(v0)
80000dfc:	304300ff 	andi	v1,v0,0xff
80000e00:	24020002 	li	v0,2
80000e04:	1062000a 	beq	v1,v0,80000e30 <_ioc_completed+0x64>
80000e08:	00000000 	nop
80000e0c:	3c028100 	lui	v0,0x8100
80000e10:	90420014 	lbu	v0,20(v0)
80000e14:	304300ff 	andi	v1,v0,0xff
80000e18:	24020003 	li	v0,3
80000e1c:	10620004 	beq	v1,v0,80000e30 <_ioc_completed+0x64>
80000e20:	00000000 	nop
80000e24:	24020001 	li	v0,1
80000e28:	0800038d 	j	80000e34 <_ioc_completed+0x68>
80000e2c:	afc20000 	sw	v0,0(s8)
80000e30:	afc00000 	sw	zero,0(s8)
80000e34:	3c028100 	lui	v0,0x8100
80000e38:	a0400002 	sb	zero,2(v0)
80000e3c:	3c028100 	lui	v0,0x8100
80000e40:	ac400004 	sw	zero,4(v0)
80000e44:	8fc20000 	lw	v0,0(s8)
80000e48:	03c0e821 	move	sp,s8
80000e4c:	8fbe000c 	lw	s8,12(sp)
80000e50:	03e00008 	jr	ra
80000e54:	27bd0010 	addiu	sp,sp,16

80000e58 <_fb_sync_write>:
80000e58:	27bdffd8 	addiu	sp,sp,-40
80000e5c:	afbf0024 	sw	ra,36(sp)
80000e60:	afbe0020 	sw	s8,32(sp)
80000e64:	03a0f021 	move	s8,sp
80000e68:	afc40028 	sw	a0,40(s8)
80000e6c:	afc5002c 	sw	a1,44(s8)
80000e70:	afc60030 	sw	a2,48(s8)
80000e74:	8fc2002c 	lw	v0,44(s8)
80000e78:	04400006 	bltz	v0,80000e94 <_fb_sync_write+0x3c>
80000e7c:	00000000 	nop
80000e80:	8fc3002c 	lw	v1,44(s8)
80000e84:	8fc20030 	lw	v0,48(s8)
80000e88:	00621021 	addu	v0,v1,v0
80000e8c:	04410005 	bgez	v0,80000ea4 <_fb_sync_write+0x4c>
80000e90:	00000000 	nop
80000e94:	24020001 	li	v0,1
80000e98:	afc20018 	sw	v0,24(s8)
80000e9c:	080003b4 	j	80000ed0 <_fb_sync_write+0x78>
80000ea0:	00000000 	nop
80000ea4:	3c029600 	lui	v0,0x9600
80000ea8:	24430000 	addiu	v1,v0,0
80000eac:	8fc20028 	lw	v0,40(s8)
80000eb0:	00621021 	addu	v0,v1,v0
80000eb4:	afc20010 	sw	v0,16(s8)
80000eb8:	8fc40010 	lw	a0,16(s8)
80000ebc:	8fc5002c 	lw	a1,44(s8)
80000ec0:	8fc60030 	lw	a2,48(s8)
80000ec4:	0c0003bb 	jal	80000eec <memcpy>
80000ec8:	00000000 	nop
80000ecc:	afc00018 	sw	zero,24(s8)
80000ed0:	8fc20018 	lw	v0,24(s8)
80000ed4:	03c0e821 	move	sp,s8
80000ed8:	8fbf0024 	lw	ra,36(sp)
80000edc:	8fbe0020 	lw	s8,32(sp)
80000ee0:	27bd0028 	addiu	sp,sp,40
80000ee4:	03e00008 	jr	ra
80000ee8:	00000000 	nop

80000eec <memcpy>:
80000eec:	27bdffe8 	addiu	sp,sp,-24
80000ef0:	afbe0014 	sw	s8,20(sp)
80000ef4:	03a0f021 	move	s8,sp
80000ef8:	afc40018 	sw	a0,24(s8)
80000efc:	afc5001c 	sw	a1,28(s8)
80000f00:	afc60020 	sw	a2,32(s8)
80000f04:	8fc20018 	lw	v0,24(s8)
80000f08:	afc2000c 	sw	v0,12(s8)
80000f0c:	8fc2001c 	lw	v0,28(s8)
80000f10:	afc20008 	sw	v0,8(s8)
80000f14:	8fc2000c 	lw	v0,12(s8)
80000f18:	30420003 	andi	v0,v0,0x3
80000f1c:	14400018 	bnez	v0,80000f80 <memcpy+0x94>
80000f20:	00000000 	nop
80000f24:	8fc20008 	lw	v0,8(s8)
80000f28:	30420003 	andi	v0,v0,0x3
80000f2c:	14400014 	bnez	v0,80000f80 <memcpy+0x94>
80000f30:	00000000 	nop
80000f34:	080003dc 	j	80000f70 <memcpy+0x84>
80000f38:	00000000 	nop
80000f3c:	8fc20008 	lw	v0,8(s8)
80000f40:	8c430000 	lw	v1,0(v0)
80000f44:	8fc2000c 	lw	v0,12(s8)
80000f48:	ac430000 	sw	v1,0(v0)
80000f4c:	8fc2000c 	lw	v0,12(s8)
80000f50:	24420004 	addiu	v0,v0,4
80000f54:	afc2000c 	sw	v0,12(s8)
80000f58:	8fc20008 	lw	v0,8(s8)
80000f5c:	24420004 	addiu	v0,v0,4
80000f60:	afc20008 	sw	v0,8(s8)
80000f64:	8fc20020 	lw	v0,32(s8)
80000f68:	2442fffc 	addiu	v0,v0,-4
80000f6c:	afc20020 	sw	v0,32(s8)
80000f70:	8fc20020 	lw	v0,32(s8)
80000f74:	2c420004 	sltiu	v0,v0,4
80000f78:	1040fff0 	beqz	v0,80000f3c <memcpy+0x50>
80000f7c:	00000000 	nop
80000f80:	8fc2000c 	lw	v0,12(s8)
80000f84:	afc20004 	sw	v0,4(s8)
80000f88:	8fc20008 	lw	v0,8(s8)
80000f8c:	afc20000 	sw	v0,0(s8)
80000f90:	080003f0 	j	80000fc0 <memcpy+0xd4>
80000f94:	00000000 	nop
80000f98:	8fc20000 	lw	v0,0(s8)
80000f9c:	90430000 	lbu	v1,0(v0)
80000fa0:	8fc20004 	lw	v0,4(s8)
80000fa4:	a0430000 	sb	v1,0(v0)
80000fa8:	8fc20004 	lw	v0,4(s8)
80000fac:	24420001 	addiu	v0,v0,1
80000fb0:	afc20004 	sw	v0,4(s8)
80000fb4:	8fc20000 	lw	v0,0(s8)
80000fb8:	24420001 	addiu	v0,v0,1
80000fbc:	afc20000 	sw	v0,0(s8)
80000fc0:	8fc20020 	lw	v0,32(s8)
80000fc4:	0002102b 	sltu	v0,zero,v0
80000fc8:	304300ff 	andi	v1,v0,0xff
80000fcc:	8fc20020 	lw	v0,32(s8)
80000fd0:	2442ffff 	addiu	v0,v0,-1
80000fd4:	afc20020 	sw	v0,32(s8)
80000fd8:	1460ffef 	bnez	v1,80000f98 <memcpy+0xac>
80000fdc:	00000000 	nop
80000fe0:	8fc20018 	lw	v0,24(s8)
80000fe4:	03c0e821 	move	sp,s8
80000fe8:	8fbe0014 	lw	s8,20(sp)
80000fec:	27bd0018 	addiu	sp,sp,24
80000ff0:	03e00008 	jr	ra
80000ff4:	00000000 	nop

80000ff8 <_fb_sync_read>:
80000ff8:	27bdffd8 	addiu	sp,sp,-40
80000ffc:	afbf0024 	sw	ra,36(sp)
80001000:	afbe0020 	sw	s8,32(sp)
80001004:	03a0f021 	move	s8,sp
80001008:	afc40028 	sw	a0,40(s8)
8000100c:	afc5002c 	sw	a1,44(s8)
80001010:	afc60030 	sw	a2,48(s8)
80001014:	8fc2002c 	lw	v0,44(s8)
80001018:	04400006 	bltz	v0,80001034 <_fb_sync_read+0x3c>
8000101c:	00000000 	nop
80001020:	8fc3002c 	lw	v1,44(s8)
80001024:	8fc20030 	lw	v0,48(s8)
80001028:	00621021 	addu	v0,v1,v0
8000102c:	04410005 	bgez	v0,80001044 <_fb_sync_read+0x4c>
80001030:	00000000 	nop
80001034:	24020001 	li	v0,1
80001038:	afc20018 	sw	v0,24(s8)
8000103c:	0800041c 	j	80001070 <_fb_sync_read+0x78>
80001040:	00000000 	nop
80001044:	3c029600 	lui	v0,0x9600
80001048:	24430000 	addiu	v1,v0,0
8000104c:	8fc20028 	lw	v0,40(s8)
80001050:	00621021 	addu	v0,v1,v0
80001054:	afc20010 	sw	v0,16(s8)
80001058:	8fc4002c 	lw	a0,44(s8)
8000105c:	8fc50010 	lw	a1,16(s8)
80001060:	8fc60030 	lw	a2,48(s8)
80001064:	0c0003bb 	jal	80000eec <memcpy>
80001068:	00000000 	nop
8000106c:	afc00018 	sw	zero,24(s8)
80001070:	8fc20018 	lw	v0,24(s8)
80001074:	03c0e821 	move	sp,s8
80001078:	8fbf0024 	lw	ra,36(sp)
8000107c:	8fbe0020 	lw	s8,32(sp)
80001080:	27bd0028 	addiu	sp,sp,40
80001084:	03e00008 	jr	ra
80001088:	00000000 	nop

8000108c <_fb_write>:
8000108c:	27bdffc8 	addiu	sp,sp,-56
80001090:	afbf0034 	sw	ra,52(sp)
80001094:	afbe0030 	sw	s8,48(sp)
80001098:	03a0f021 	move	s8,sp
8000109c:	afc40038 	sw	a0,56(s8)
800010a0:	afc5003c 	sw	a1,60(s8)
800010a4:	afc60040 	sw	a2,64(s8)
800010a8:	8fc2003c 	lw	v0,60(s8)
800010ac:	04400006 	bltz	v0,800010c8 <_fb_write+0x3c>
800010b0:	00000000 	nop
800010b4:	8fc3003c 	lw	v1,60(s8)
800010b8:	8fc20040 	lw	v0,64(s8)
800010bc:	00621021 	addu	v0,v1,v0
800010c0:	04410004 	bgez	v0,800010d4 <_fb_write+0x48>
800010c4:	00000000 	nop
800010c8:	24020001 	li	v0,1
800010cc:	08000471 	j	800011c4 <_fb_write+0x138>
800010d0:	afc20028 	sw	v0,40(s8)
800010d4:	0c000100 	jal	80000400 <_procid>
800010d8:	00000000 	nop
800010dc:	afc20018 	sw	v0,24(s8)
800010e0:	3c029600 	lui	v0,0x9600
800010e4:	24430000 	addiu	v1,v0,0
800010e8:	8fc20038 	lw	v0,56(s8)
800010ec:	00621021 	addu	v0,v1,v0
800010f0:	afc20020 	sw	v0,32(s8)
800010f4:	3c029300 	lui	v0,0x9300
800010f8:	24430000 	addiu	v1,v0,0
800010fc:	8fc20018 	lw	v0,24(s8)
80001100:	00021140 	sll	v0,v0,0x5
80001104:	00621021 	addu	v0,v1,v0
80001108:	08000454 	j	80001150 <_fb_write+0xc4>
8000110c:	afc2001c 	sw	v0,28(s8)
80001110:	0c00010b 	jal	8000042c <_proctime>
80001114:	00000000 	nop
80001118:	00021100 	sll	v0,v0,0x4
8000111c:	304200ff 	andi	v0,v0,0xff
80001120:	afc20014 	sw	v0,20(s8)
80001124:	0800044f 	j	8000113c <_fb_write+0xb0>
80001128:	afc00010 	sw	zero,16(s8)
8000112c:	00000000 	nop
80001130:	8fc20010 	lw	v0,16(s8)
80001134:	24420001 	addiu	v0,v0,1
80001138:	afc20010 	sw	v0,16(s8)
8000113c:	8fc20010 	lw	v0,16(s8)
80001140:	8fc30014 	lw	v1,20(s8)
80001144:	0043102b 	sltu	v0,v0,v1
80001148:	1440fff8 	bnez	v0,8000112c <_fb_write+0xa0>
8000114c:	00000000 	nop
80001150:	8fc30018 	lw	v1,24(s8)
80001154:	3c028100 	lui	v0,0x8100
80001158:	24420000 	addiu	v0,v0,0
8000115c:	00621021 	addu	v0,v1,v0
80001160:	90420000 	lbu	v0,0(v0)
80001164:	304200ff 	andi	v0,v0,0xff
80001168:	1440ffe9 	bnez	v0,80001110 <_fb_write+0x84>
8000116c:	00000000 	nop
80001170:	8fc30018 	lw	v1,24(s8)
80001174:	3c028100 	lui	v0,0x8100
80001178:	24420000 	addiu	v0,v0,0
8000117c:	00621821 	addu	v1,v1,v0
80001180:	24020001 	li	v0,1
80001184:	a0620000 	sb	v0,0(v1)
80001188:	8fc2001c 	lw	v0,28(s8)
8000118c:	24420010 	addiu	v0,v0,16
80001190:	ac400000 	sw	zero,0(v0)
80001194:	8fc3003c 	lw	v1,60(s8)
80001198:	8fc2001c 	lw	v0,28(s8)
8000119c:	ac430000 	sw	v1,0(v0)
800011a0:	8fc2001c 	lw	v0,28(s8)
800011a4:	24430004 	addiu	v1,v0,4
800011a8:	8fc20020 	lw	v0,32(s8)
800011ac:	ac620000 	sw	v0,0(v1)
800011b0:	8fc2001c 	lw	v0,28(s8)
800011b4:	24430008 	addiu	v1,v0,8
800011b8:	8fc20040 	lw	v0,64(s8)
800011bc:	ac620000 	sw	v0,0(v1)
800011c0:	afc00028 	sw	zero,40(s8)
800011c4:	8fc20028 	lw	v0,40(s8)
800011c8:	03c0e821 	move	sp,s8
800011cc:	8fbf0034 	lw	ra,52(sp)
800011d0:	8fbe0030 	lw	s8,48(sp)
800011d4:	03e00008 	jr	ra
800011d8:	27bd0038 	addiu	sp,sp,56

800011dc <_fb_read>:
800011dc:	27bdffc8 	addiu	sp,sp,-56
800011e0:	afbf0034 	sw	ra,52(sp)
800011e4:	afbe0030 	sw	s8,48(sp)
800011e8:	03a0f021 	move	s8,sp
800011ec:	afc40038 	sw	a0,56(s8)
800011f0:	afc5003c 	sw	a1,60(s8)
800011f4:	afc60040 	sw	a2,64(s8)
800011f8:	8fc2003c 	lw	v0,60(s8)
800011fc:	04400006 	bltz	v0,80001218 <_fb_read+0x3c>
80001200:	00000000 	nop
80001204:	8fc3003c 	lw	v1,60(s8)
80001208:	8fc20040 	lw	v0,64(s8)
8000120c:	00621021 	addu	v0,v1,v0
80001210:	04410004 	bgez	v0,80001224 <_fb_read+0x48>
80001214:	00000000 	nop
80001218:	24020001 	li	v0,1
8000121c:	080004c5 	j	80001314 <_fb_read+0x138>
80001220:	afc20028 	sw	v0,40(s8)
80001224:	0c000100 	jal	80000400 <_procid>
80001228:	00000000 	nop
8000122c:	afc20018 	sw	v0,24(s8)
80001230:	3c029600 	lui	v0,0x9600
80001234:	24430000 	addiu	v1,v0,0
80001238:	8fc20038 	lw	v0,56(s8)
8000123c:	00621021 	addu	v0,v1,v0
80001240:	afc20020 	sw	v0,32(s8)
80001244:	3c029300 	lui	v0,0x9300
80001248:	24430000 	addiu	v1,v0,0
8000124c:	8fc20018 	lw	v0,24(s8)
80001250:	00021140 	sll	v0,v0,0x5
80001254:	00621021 	addu	v0,v1,v0
80001258:	080004a8 	j	800012a0 <_fb_read+0xc4>
8000125c:	afc2001c 	sw	v0,28(s8)
80001260:	0c00010b 	jal	8000042c <_proctime>
80001264:	00000000 	nop
80001268:	00021100 	sll	v0,v0,0x4
8000126c:	304200ff 	andi	v0,v0,0xff
80001270:	afc20014 	sw	v0,20(s8)
80001274:	080004a3 	j	8000128c <_fb_read+0xb0>
80001278:	afc00010 	sw	zero,16(s8)
8000127c:	00000000 	nop
80001280:	8fc20010 	lw	v0,16(s8)
80001284:	24420001 	addiu	v0,v0,1
80001288:	afc20010 	sw	v0,16(s8)
8000128c:	8fc20010 	lw	v0,16(s8)
80001290:	8fc30014 	lw	v1,20(s8)
80001294:	0043102b 	sltu	v0,v0,v1
80001298:	1440fff8 	bnez	v0,8000127c <_fb_read+0xa0>
8000129c:	00000000 	nop
800012a0:	8fc30018 	lw	v1,24(s8)
800012a4:	3c028100 	lui	v0,0x8100
800012a8:	24420000 	addiu	v0,v0,0
800012ac:	00621021 	addu	v0,v1,v0
800012b0:	90420000 	lbu	v0,0(v0)
800012b4:	304200ff 	andi	v0,v0,0xff
800012b8:	1440ffe9 	bnez	v0,80001260 <_fb_read+0x84>
800012bc:	00000000 	nop
800012c0:	8fc30018 	lw	v1,24(s8)
800012c4:	3c028100 	lui	v0,0x8100
800012c8:	24420000 	addiu	v0,v0,0
800012cc:	00621821 	addu	v1,v1,v0
800012d0:	24020001 	li	v0,1
800012d4:	a0620000 	sb	v0,0(v1)
800012d8:	8fc2001c 	lw	v0,28(s8)
800012dc:	24420010 	addiu	v0,v0,16
800012e0:	ac400000 	sw	zero,0(v0)
800012e4:	8fc30020 	lw	v1,32(s8)
800012e8:	8fc2001c 	lw	v0,28(s8)
800012ec:	ac430000 	sw	v1,0(v0)
800012f0:	8fc2001c 	lw	v0,28(s8)
800012f4:	24430004 	addiu	v1,v0,4
800012f8:	8fc2003c 	lw	v0,60(s8)
800012fc:	ac620000 	sw	v0,0(v1)
80001300:	8fc2001c 	lw	v0,28(s8)
80001304:	24430008 	addiu	v1,v0,8
80001308:	8fc20040 	lw	v0,64(s8)
8000130c:	ac620000 	sw	v0,0(v1)
80001310:	afc00028 	sw	zero,40(s8)
80001314:	8fc20028 	lw	v0,40(s8)
80001318:	03c0e821 	move	sp,s8
8000131c:	8fbf0034 	lw	ra,52(sp)
80001320:	8fbe0030 	lw	s8,48(sp)
80001324:	03e00008 	jr	ra
80001328:	27bd0038 	addiu	sp,sp,56

8000132c <_fb_completed>:
8000132c:	27bdffd8 	addiu	sp,sp,-40
80001330:	afbf0024 	sw	ra,36(sp)
80001334:	afbe0020 	sw	s8,32(sp)
80001338:	0c000100 	jal	80000400 <_procid>
8000133c:	03a0f021 	move	s8,sp
80001340:	080004d3 	j	8000134c <_fb_completed+0x20>
80001344:	afc20010 	sw	v0,16(s8)
80001348:	00000000 	nop
8000134c:	8fc30010 	lw	v1,16(s8)
80001350:	3c028100 	lui	v0,0x8100
80001354:	24420000 	addiu	v0,v0,0
80001358:	00621021 	addu	v0,v1,v0
8000135c:	90420000 	lbu	v0,0(v0)
80001360:	304200ff 	andi	v0,v0,0xff
80001364:	1440fff8 	bnez	v0,80001348 <_fb_completed+0x1c>
80001368:	00000000 	nop
8000136c:	8fc20010 	lw	v0,16(s8)
80001370:	3c038100 	lui	v1,0x8100
80001374:	00022080 	sll	a0,v0,0x2
80001378:	2462000c 	addiu	v0,v1,12
8000137c:	00821021 	addu	v0,a0,v0
80001380:	8c420000 	lw	v0,0(v0)
80001384:	10400004 	beqz	v0,80001398 <_fb_completed+0x6c>
80001388:	00000000 	nop
8000138c:	24020001 	li	v0,1
80001390:	080004e7 	j	8000139c <_fb_completed+0x70>
80001394:	afc20018 	sw	v0,24(s8)
80001398:	afc00018 	sw	zero,24(s8)
8000139c:	8fc20018 	lw	v0,24(s8)
800013a0:	03c0e821 	move	sp,s8
800013a4:	8fbf0024 	lw	ra,36(sp)
800013a8:	8fbe0020 	lw	s8,32(sp)
800013ac:	03e00008 	jr	ra
800013b0:	27bd0028 	addiu	sp,sp,40

800013b4 <_putk>:
800013b4:	27bdffe0 	addiu	sp,sp,-32
800013b8:	afbf001c 	sw	ra,28(sp)
800013bc:	afbe0018 	sw	s8,24(sp)
800013c0:	03a0f021 	move	s8,sp
800013c4:	afc40020 	sw	a0,32(s8)
800013c8:	afc00014 	sw	zero,20(s8)
800013cc:	8fc20020 	lw	v0,32(s8)
800013d0:	afc20010 	sw	v0,16(s8)
800013d4:	080004fa 	j	800013e8 <_putk+0x34>
800013d8:	00000000 	nop
800013dc:	8fc20014 	lw	v0,20(s8)
800013e0:	24420001 	addiu	v0,v0,1
800013e4:	afc20014 	sw	v0,20(s8)
800013e8:	8fc20010 	lw	v0,16(s8)
800013ec:	80420000 	lb	v0,0(v0)
800013f0:	0002102b 	sltu	v0,zero,v0
800013f4:	304300ff 	andi	v1,v0,0xff
800013f8:	8fc20010 	lw	v0,16(s8)
800013fc:	24420001 	addiu	v0,v0,1
80001400:	afc20010 	sw	v0,16(s8)
80001404:	1460fff5 	bnez	v1,800013dc <_putk+0x28>
80001408:	00000000 	nop
8000140c:	8fc40020 	lw	a0,32(s8)
80001410:	8fc50014 	lw	a1,20(s8)
80001414:	0c000188 	jal	80000620 <_tty_write>
80001418:	00000000 	nop
8000141c:	03c0e821 	move	sp,s8
80001420:	8fbf001c 	lw	ra,28(sp)
80001424:	8fbe0018 	lw	s8,24(sp)
80001428:	27bd0020 	addiu	sp,sp,32
8000142c:	03e00008 	jr	ra
80001430:	00000000 	nop

80001434 <_exit>:
80001434:	27bdffb8 	addiu	sp,sp,-72
80001438:	afbf0044 	sw	ra,68(sp)
8000143c:	afbe0040 	sw	s8,64(sp)
80001440:	03a0f021 	move	s8,sp
80001444:	3c038200 	lui	v1,0x8200
80001448:	8c660000 	lw	a2,0(v1)
8000144c:	24620000 	addiu	v0,v1,0
80001450:	8c470004 	lw	a3,4(v0)
80001454:	24620000 	addiu	v0,v1,0
80001458:	8c480008 	lw	t0,8(v0)
8000145c:	24620000 	addiu	v0,v1,0
80001460:	8c49000c 	lw	t1,12(v0)
80001464:	24620000 	addiu	v0,v1,0
80001468:	8c4a0010 	lw	t2,16(v0)
8000146c:	24620000 	addiu	v0,v1,0
80001470:	8c440014 	lw	a0,20(v0)
80001474:	24620000 	addiu	v0,v1,0
80001478:	8c450018 	lw	a1,24(v0)
8000147c:	24620000 	addiu	v0,v1,0
80001480:	8c42001c 	lw	v0,28(v0)
80001484:	afc60014 	sw	a2,20(s8)
80001488:	afc70018 	sw	a3,24(s8)
8000148c:	afc8001c 	sw	t0,28(s8)
80001490:	afc90020 	sw	t1,32(s8)
80001494:	afca0024 	sw	t2,36(s8)
80001498:	afc40028 	sw	a0,40(s8)
8000149c:	afc5002c 	sw	a1,44(s8)
800014a0:	afc20030 	sw	v0,48(s8)
800014a4:	afc00034 	sw	zero,52(s8)
800014a8:	0c000100 	jal	80000400 <_procid>
800014ac:	afc00038 	sw	zero,56(s8)
800014b0:	afc20010 	sw	v0,16(s8)
800014b4:	8fc20010 	lw	v0,16(s8)
800014b8:	00021202 	srl	v0,v0,0x8
800014bc:	304200ff 	andi	v0,v0,0xff
800014c0:	3042000f 	andi	v0,v0,0xf
800014c4:	24420030 	addiu	v0,v0,48
800014c8:	304200ff 	andi	v0,v0,0xff
800014cc:	00021600 	sll	v0,v0,0x18
800014d0:	00021603 	sra	v0,v0,0x18
800014d4:	a3c2002b 	sb	v0,43(s8)
800014d8:	8fc20010 	lw	v0,16(s8)
800014dc:	00021102 	srl	v0,v0,0x4
800014e0:	304200ff 	andi	v0,v0,0xff
800014e4:	3042000f 	andi	v0,v0,0xf
800014e8:	24420030 	addiu	v0,v0,48
800014ec:	304200ff 	andi	v0,v0,0xff
800014f0:	00021600 	sll	v0,v0,0x18
800014f4:	00021603 	sra	v0,v0,0x18
800014f8:	a3c2002c 	sb	v0,44(s8)
800014fc:	8fc20010 	lw	v0,16(s8)
80001500:	304200ff 	andi	v0,v0,0xff
80001504:	3042000f 	andi	v0,v0,0xf
80001508:	24420030 	addiu	v0,v0,48
8000150c:	304200ff 	andi	v0,v0,0xff
80001510:	00021600 	sll	v0,v0,0x18
80001514:	00021603 	sra	v0,v0,0x18
80001518:	a3c2002d 	sb	v0,45(s8)
8000151c:	27c20014 	addiu	v0,s8,20
80001520:	0c0004ed 	jal	800013b4 <_putk>
80001524:	00402021 	move	a0,v0
80001528:	0800054a 	j	80001528 <_exit+0xf4>
8000152c:	00000000 	nop

80001530 <_dcache_buf_invalidate>:
80001530:	27bdffe8 	addiu	sp,sp,-24
80001534:	afbe0014 	sw	s8,20(sp)
80001538:	03a0f021 	move	s8,sp
8000153c:	afc40018 	sw	a0,24(s8)
80001540:	afc5001c 	sw	a1,28(s8)
80001544:	40028001 	mfc0	v0,c0_config1
80001548:	afc20004 	sw	v0,4(s8)
8000154c:	8fc20004 	lw	v0,4(s8)
80001550:	00021282 	srl	v0,v0,0xa
80001554:	30420007 	andi	v0,v0,0x7
80001558:	afc20004 	sw	v0,4(s8)
8000155c:	8fc30004 	lw	v1,4(s8)
80001560:	24020002 	li	v0,2
80001564:	00621004 	sllv	v0,v0,v1
80001568:	afc20000 	sw	v0,0(s8)
8000156c:	08000565 	j	80001594 <_dcache_buf_invalidate+0x64>
80001570:	afc00008 	sw	zero,8(s8)
80001574:	8fc30018 	lw	v1,24(s8)
80001578:	8fc20008 	lw	v0,8(s8)
8000157c:	00621021 	addu	v0,v1,v0
80001580:	bc510000 	cache	0x11,0(v0)
80001584:	8fc30008 	lw	v1,8(s8)
80001588:	8fc20000 	lw	v0,0(s8)
8000158c:	00621021 	addu	v0,v1,v0
80001590:	afc20008 	sw	v0,8(s8)
80001594:	8fc20008 	lw	v0,8(s8)
80001598:	8fc3001c 	lw	v1,28(s8)
8000159c:	0043102b 	sltu	v0,v0,v1
800015a0:	1440fff4 	bnez	v0,80001574 <_dcache_buf_invalidate+0x44>
800015a4:	00000000 	nop
800015a8:	03c0e821 	move	sp,s8
800015ac:	8fbe0014 	lw	s8,20(sp)
800015b0:	03e00008 	jr	ra
800015b4:	27bd0018 	addiu	sp,sp,24

800015b8 <_itoa_dec>:
800015b8:	27bdffe8 	addiu	sp,sp,-24
800015bc:	afbe0014 	sw	s8,20(sp)
800015c0:	03a0f021 	move	s8,sp
800015c4:	afc40018 	sw	a0,24(s8)
800015c8:	afc5001c 	sw	a1,28(s8)
800015cc:	afc00000 	sw	zero,0(s8)
800015d0:	080005a7 	j	8000169c <_itoa_dec+0xe4>
800015d4:	00000000 	nop
800015d8:	8fc20018 	lw	v0,24(s8)
800015dc:	14400004 	bnez	v0,800015f0 <_itoa_dec+0x38>
800015e0:	00000000 	nop
800015e4:	8fc20000 	lw	v0,0(s8)
800015e8:	1440001b 	bnez	v0,80001658 <_itoa_dec+0xa0>
800015ec:	00000000 	nop
800015f0:	24030009 	li	v1,9
800015f4:	8fc20000 	lw	v0,0(s8)
800015f8:	00621823 	subu	v1,v1,v0
800015fc:	8fc2001c 	lw	v0,28(s8)
80001600:	00432821 	addu	a1,v0,v1
80001604:	8fc40018 	lw	a0,24(s8)
80001608:	3c02cccc 	lui	v0,0xcccc
8000160c:	3442cccd 	ori	v0,v0,0xcccd
80001610:	00820019 	multu	a0,v0
80001614:	00001010 	mfhi	v0
80001618:	000210c2 	srl	v0,v0,0x3
8000161c:	afc20008 	sw	v0,8(s8)
80001620:	8fc20008 	lw	v0,8(s8)
80001624:	00021040 	sll	v0,v0,0x1
80001628:	00021880 	sll	v1,v0,0x2
8000162c:	00431021 	addu	v0,v0,v1
80001630:	00821023 	subu	v0,a0,v0
80001634:	afc20008 	sw	v0,8(s8)
80001638:	3c028200 	lui	v0,0x8200
8000163c:	24420028 	addiu	v0,v0,40
80001640:	8fc30008 	lw	v1,8(s8)
80001644:	00621021 	addu	v0,v1,v0
80001648:	80420000 	lb	v0,0(v0)
8000164c:	a0a20000 	sb	v0,0(a1)
80001650:	0800059d 	j	80001674 <_itoa_dec+0xbc>
80001654:	00000000 	nop
80001658:	24030009 	li	v1,9
8000165c:	8fc20000 	lw	v0,0(s8)
80001660:	00621823 	subu	v1,v1,v0
80001664:	8fc2001c 	lw	v0,28(s8)
80001668:	00431821 	addu	v1,v0,v1
8000166c:	24020020 	li	v0,32
80001670:	a0620000 	sb	v0,0(v1)
80001674:	8fc30018 	lw	v1,24(s8)
80001678:	3c02cccc 	lui	v0,0xcccc
8000167c:	3442cccd 	ori	v0,v0,0xcccd
80001680:	00620019 	multu	v1,v0
80001684:	00001010 	mfhi	v0
80001688:	000210c2 	srl	v0,v0,0x3
8000168c:	afc20018 	sw	v0,24(s8)
80001690:	8fc20000 	lw	v0,0(s8)
80001694:	24420001 	addiu	v0,v0,1
80001698:	afc20000 	sw	v0,0(s8)
8000169c:	8fc20000 	lw	v0,0(s8)
800016a0:	2c42000a 	sltiu	v0,v0,10
800016a4:	1440ffcc 	bnez	v0,800015d8 <_itoa_dec+0x20>
800016a8:	00000000 	nop
800016ac:	03c0e821 	move	sp,s8
800016b0:	8fbe0014 	lw	s8,20(sp)
800016b4:	27bd0018 	addiu	sp,sp,24
800016b8:	03e00008 	jr	ra
800016bc:	00000000 	nop

800016c0 <_itoa_hex>:
800016c0:	27bdfff0 	addiu	sp,sp,-16
800016c4:	afbe000c 	sw	s8,12(sp)
800016c8:	03a0f021 	move	s8,sp
800016cc:	afc40010 	sw	a0,16(s8)
800016d0:	afc50014 	sw	a1,20(s8)
800016d4:	afc00000 	sw	zero,0(s8)
800016d8:	080005ca 	j	80001728 <_itoa_hex+0x68>
800016dc:	00000000 	nop
800016e0:	24030007 	li	v1,7
800016e4:	8fc20000 	lw	v0,0(s8)
800016e8:	00621823 	subu	v1,v1,v0
800016ec:	8fc20014 	lw	v0,20(s8)
800016f0:	00432021 	addu	a0,v0,v1
800016f4:	8fc20010 	lw	v0,16(s8)
800016f8:	3043000f 	andi	v1,v0,0xf
800016fc:	3c028200 	lui	v0,0x8200
80001700:	24420034 	addiu	v0,v0,52
80001704:	00621021 	addu	v0,v1,v0
80001708:	80420000 	lb	v0,0(v0)
8000170c:	a0820000 	sb	v0,0(a0)
80001710:	8fc20010 	lw	v0,16(s8)
80001714:	00021102 	srl	v0,v0,0x4
80001718:	afc20010 	sw	v0,16(s8)
8000171c:	8fc20000 	lw	v0,0(s8)
80001720:	24420001 	addiu	v0,v0,1
80001724:	afc20000 	sw	v0,0(s8)
80001728:	8fc20000 	lw	v0,0(s8)
8000172c:	2c420008 	sltiu	v0,v0,8
80001730:	1440ffeb 	bnez	v0,800016e0 <_itoa_hex+0x20>
80001734:	00000000 	nop
80001738:	03c0e821 	move	sp,s8
8000173c:	8fbe000c 	lw	s8,12(sp)
80001740:	27bd0010 	addiu	sp,sp,16
80001744:	03e00008 	jr	ra
80001748:	00000000 	nop

8000174c <_barrier_init>:
8000174c:	27bdffe8 	addiu	sp,sp,-24
80001750:	afbe0014 	sw	s8,20(sp)
80001754:	03a0f021 	move	s8,sp
80001758:	afc40018 	sw	a0,24(s8)
8000175c:	afc5001c 	sw	a1,28(s8)
80001760:	8fc20018 	lw	v0,24(s8)
80001764:	2c420008 	sltiu	v0,v0,8
80001768:	14400004 	bnez	v0,8000177c <_barrier_init+0x30>
8000176c:	00000000 	nop
80001770:	24020001 	li	v0,1
80001774:	080005f8 	j	800017e0 <_barrier_init_done+0x4>
80001778:	afc20008 	sw	v0,8(s8)
8000177c:	8fc20018 	lw	v0,24(s8)
80001780:	00021880 	sll	v1,v0,0x2
80001784:	3c028100 	lui	v0,0x8100
80001788:	2442001c 	addiu	v0,v0,28
8000178c:	00621021 	addu	v0,v1,v0
80001790:	afc20004 	sw	v0,4(s8)
80001794:	8fc20018 	lw	v0,24(s8)
80001798:	00021880 	sll	v1,v0,0x2
8000179c:	3c028100 	lui	v0,0x8100
800017a0:	2442003c 	addiu	v0,v0,60
800017a4:	00621021 	addu	v0,v1,v0
800017a8:	afc20000 	sw	v0,0(s8)
800017ac:	8fc60004 	lw	a2,4(s8)
800017b0:	8fc50000 	lw	a1,0(s8)
800017b4:	8fc4001c 	lw	a0,28(s8)

800017b8 <_barrier_init_test>:
800017b8:	c0c20000 	ll	v0,0(a2)
800017bc:	14400007 	bnez	v0,800017dc <_barrier_init_done>
800017c0:	00000000 	nop
800017c4:	00801821 	move	v1,a0
800017c8:	e0c30000 	sc	v1,0(a2)
800017cc:	1060fffa 	beqz	v1,800017b8 <_barrier_init_test>
800017d0:	00000000 	nop
800017d4:	00801821 	move	v1,a0
800017d8:	aca30000 	sw	v1,0(a1)

800017dc <_barrier_init_done>:
800017dc:	afc00008 	sw	zero,8(s8)
800017e0:	8fc20008 	lw	v0,8(s8)
800017e4:	03c0e821 	move	sp,s8
800017e8:	8fbe0014 	lw	s8,20(sp)
800017ec:	03e00008 	jr	ra
800017f0:	27bd0018 	addiu	sp,sp,24

800017f4 <_barrier_wait>:
800017f4:	27bdffe0 	addiu	sp,sp,-32
800017f8:	afbe001c 	sw	s8,28(sp)
800017fc:	03a0f021 	move	s8,sp
80001800:	afc40020 	sw	a0,32(s8)
80001804:	8fc20020 	lw	v0,32(s8)
80001808:	2c420008 	sltiu	v0,v0,8
8000180c:	14400004 	bnez	v0,80001820 <_barrier_wait+0x2c>
80001810:	00000000 	nop
80001814:	24020001 	li	v0,1
80001818:	0800062b 	j	800018ac <_barrier_decrement+0x54>
8000181c:	afc20010 	sw	v0,16(s8)
80001820:	8fc20020 	lw	v0,32(s8)
80001824:	00021880 	sll	v1,v0,0x2
80001828:	3c028100 	lui	v0,0x8100
8000182c:	2442003c 	addiu	v0,v0,60
80001830:	00621021 	addu	v0,v1,v0
80001834:	afc20008 	sw	v0,8(s8)
80001838:	8fc20020 	lw	v0,32(s8)
8000183c:	3c038100 	lui	v1,0x8100
80001840:	00022080 	sll	a0,v0,0x2
80001844:	2462001c 	addiu	v0,v1,28
80001848:	00821021 	addu	v0,a0,v0
8000184c:	8c420000 	lw	v0,0(v0)
80001850:	afc20004 	sw	v0,4(s8)
80001854:	8fc40008 	lw	a0,8(s8)

80001858 <_barrier_decrement>:
80001858:	c0850000 	ll	a1,0(a0)
8000185c:	20a3ffff 	addi	v1,a1,-1
80001860:	e0830000 	sc	v1,0(a0)
80001864:	1060fffc 	beqz	v1,80001858 <_barrier_decrement>
80001868:	00000000 	nop
8000186c:	00a02021 	move	a0,a1
80001870:	afc40000 	sw	a0,0(s8)
80001874:	8fc30000 	lw	v1,0(s8)
80001878:	24020001 	li	v0,1
8000187c:	14620005 	bne	v1,v0,80001894 <_barrier_decrement+0x3c>
80001880:	00000000 	nop
80001884:	8fc30008 	lw	v1,8(s8)
80001888:	8fc20004 	lw	v0,4(s8)
8000188c:	0800062a 	j	800018a8 <_barrier_decrement+0x50>
80001890:	ac620000 	sw	v0,0(v1)
80001894:	8fc20008 	lw	v0,8(s8)
80001898:	8c430000 	lw	v1,0(v0)
8000189c:	8fc20004 	lw	v0,4(s8)
800018a0:	1462fffc 	bne	v1,v0,80001894 <_barrier_decrement+0x3c>
800018a4:	00000000 	nop
800018a8:	afc00010 	sw	zero,16(s8)
800018ac:	8fc20010 	lw	v0,16(s8)
800018b0:	03c0e821 	move	sp,s8
800018b4:	8fbe001c 	lw	s8,28(sp)
800018b8:	03e00008 	jr	ra
800018bc:	27bd0020 	addiu	sp,sp,32

800018c0 <_ctx_switch>:
800018c0:	27bdffd0 	addiu	sp,sp,-48
800018c4:	afbf002c 	sw	ra,44(sp)
800018c8:	afbe0028 	sw	s8,40(sp)
800018cc:	03a0f021 	move	s8,sp
800018d0:	0c000100 	jal	80000400 <_procid>
800018d4:	00000000 	nop
800018d8:	afc20010 	sw	v0,16(s8)
800018dc:	8fc30010 	lw	v1,16(s8)
800018e0:	3c028200 	lui	v0,0x8200
800018e4:	244203bc 	addiu	v0,v0,956
800018e8:	00621021 	addu	v0,v1,v0
800018ec:	90420000 	lbu	v0,0(v0)
800018f0:	2c420002 	sltiu	v0,v0,2
800018f4:	1440002c 	bnez	v0,800019a8 <_ctx_switch+0xe8>
800018f8:	00000000 	nop
800018fc:	8fc30010 	lw	v1,16(s8)
80001900:	3c028200 	lui	v0,0x8200
80001904:	244205c0 	addiu	v0,v0,1472
80001908:	00621021 	addu	v0,v1,v0
8000190c:	90420000 	lbu	v0,0(v0)
80001910:	a3c2001d 	sb	v0,29(s8)
80001914:	93c3001d 	lbu	v1,29(s8)
80001918:	8fc20010 	lw	v0,16(s8)
8000191c:	00621021 	addu	v0,v1,v0
80001920:	00021a00 	sll	v1,v0,0x8
80001924:	3c028200 	lui	v0,0x8200
80001928:	244203c0 	addiu	v0,v0,960
8000192c:	00621021 	addu	v0,v1,v0
80001930:	afc20018 	sw	v0,24(s8)
80001934:	93c2001d 	lbu	v0,29(s8)
80001938:	24440001 	addiu	a0,v0,1
8000193c:	8fc30010 	lw	v1,16(s8)
80001940:	3c028200 	lui	v0,0x8200
80001944:	244203bc 	addiu	v0,v0,956
80001948:	00621021 	addu	v0,v1,v0
8000194c:	90420000 	lbu	v0,0(v0)
80001950:	0082001a 	div	zero,a0,v0
80001954:	004001f4 	teq	v0,zero,0x7
80001958:	00001010 	mfhi	v0
8000195c:	a3c2001c 	sb	v0,28(s8)
80001960:	93c3001c 	lbu	v1,28(s8)
80001964:	8fc20010 	lw	v0,16(s8)
80001968:	00621021 	addu	v0,v1,v0
8000196c:	00021a00 	sll	v1,v0,0x8
80001970:	3c028200 	lui	v0,0x8200
80001974:	244203c0 	addiu	v0,v0,960
80001978:	00621021 	addu	v0,v1,v0
8000197c:	afc20014 	sw	v0,20(s8)
80001980:	8fc30010 	lw	v1,16(s8)
80001984:	3c028200 	lui	v0,0x8200
80001988:	244205c0 	addiu	v0,v0,1472
8000198c:	00621821 	addu	v1,v1,v0
80001990:	93c2001c 	lbu	v0,28(s8)
80001994:	a0620000 	sb	v0,0(v1)
80001998:	8fc40018 	lw	a0,24(s8)
8000199c:	8fc50014 	lw	a1,20(s8)
800019a0:	0c0000b7 	jal	800002dc <_task_switch>
800019a4:	00000000 	nop
800019a8:	03c0e821 	move	sp,s8
800019ac:	8fbf002c 	lw	ra,44(sp)
800019b0:	8fbe0028 	lw	s8,40(sp)
800019b4:	27bd0030 	addiu	sp,sp,48
800019b8:	03e00008 	jr	ra
800019bc:	00000000 	nop

800019c0 <_sys_ukn>:
800019c0:	27bdffe0 	addiu	sp,sp,-32
800019c4:	afbf001c 	sw	ra,28(sp)
800019c8:	afbe0018 	sw	s8,24(sp)
800019cc:	03a0f021 	move	s8,sp
800019d0:	3c028200 	lui	v0,0x8200
800019d4:	24440044 	addiu	a0,v0,68
800019d8:	0c0004ed 	jal	800013b4 <_putk>
800019dc:	00000000 	nop
800019e0:	3c028200 	lui	v0,0x8200
800019e4:	24440068 	addiu	a0,v0,104
800019e8:	0c0004ed 	jal	800013b4 <_putk>
800019ec:	00000000 	nop
800019f0:	3c028200 	lui	v0,0x8200
800019f4:	24420070 	addiu	v0,v0,112
800019f8:	afc20014 	sw	v0,20(s8)
800019fc:	0c00068d 	jal	80001a34 <_get_epc>
80001a00:	00000000 	nop
80001a04:	afc20010 	sw	v0,16(s8)
80001a08:	8fc20014 	lw	v0,20(s8)
80001a0c:	24420002 	addiu	v0,v0,2
80001a10:	8fc40010 	lw	a0,16(s8)
80001a14:	00402821 	move	a1,v0
80001a18:	0c0005b0 	jal	800016c0 <_itoa_hex>
80001a1c:	00000000 	nop
80001a20:	8fc40014 	lw	a0,20(s8)
80001a24:	0c0004ed 	jal	800013b4 <_putk>
80001a28:	00000000 	nop
80001a2c:	0c00050d 	jal	80001434 <_exit>
80001a30:	00000000 	nop

80001a34 <_get_epc>:
80001a34:	27bdfff0 	addiu	sp,sp,-16
80001a38:	afbe000c 	sw	s8,12(sp)
80001a3c:	03a0f021 	move	s8,sp
80001a40:	40027000 	mfc0	v0,c0_epc
80001a44:	afc20000 	sw	v0,0(s8)
80001a48:	8fc20000 	lw	v0,0(s8)
80001a4c:	03c0e821 	move	sp,s8
80001a50:	8fbe000c 	lw	s8,12(sp)
80001a54:	03e00008 	jr	ra
80001a58:	27bd0010 	addiu	sp,sp,16

80001a5c <_procnumber>:
80001a5c:	27bdfff8 	addiu	sp,sp,-8
80001a60:	afbe0004 	sw	s8,4(sp)
80001a64:	03a0f021 	move	s8,sp
80001a68:	24020002 	li	v0,2
80001a6c:	03c0e821 	move	sp,s8
80001a70:	8fbe0004 	lw	s8,4(sp)
80001a74:	27bd0008 	addiu	sp,sp,8
80001a78:	03e00008 	jr	ra
80001a7c:	00000000 	nop

80001a80 <_int_demux>:
80001a80:	27bdffe0 	addiu	sp,sp,-32
80001a84:	afbf001c 	sw	ra,28(sp)
80001a88:	afbe0018 	sw	s8,24(sp)
80001a8c:	03a0f021 	move	s8,sp
80001a90:	27c20014 	addiu	v0,s8,20
80001a94:	24040004 	li	a0,4
80001a98:	00402821 	move	a1,v0
80001a9c:	0c000289 	jal	80000a24 <_icu_read>
80001aa0:	00000000 	nop
80001aa4:	1440000f 	bnez	v0,80001ae4 <_int_demux+0x64>
80001aa8:	00000000 	nop
80001aac:	8fc20014 	lw	v0,20(s8)
80001ab0:	28420020 	slti	v0,v0,32
80001ab4:	1040000b 	beqz	v0,80001ae4 <_int_demux+0x64>
80001ab8:	00000000 	nop
80001abc:	8fc20014 	lw	v0,20(s8)
80001ac0:	3c038200 	lui	v1,0x8200
80001ac4:	00022080 	sll	a0,v0,0x2
80001ac8:	2462031c 	addiu	v0,v1,796
80001acc:	00821021 	addu	v0,a0,v0
80001ad0:	8c420000 	lw	v0,0(v0)
80001ad4:	afc20010 	sw	v0,16(s8)
80001ad8:	8fc20010 	lw	v0,16(s8)
80001adc:	0040f809 	jalr	v0
80001ae0:	00000000 	nop
80001ae4:	03c0e821 	move	sp,s8
80001ae8:	8fbf001c 	lw	ra,28(sp)
80001aec:	8fbe0018 	lw	s8,24(sp)
80001af0:	27bd0020 	addiu	sp,sp,32
80001af4:	03e00008 	jr	ra
80001af8:	00000000 	nop

80001afc <_isr_default>:
80001afc:	27bdffe8 	addiu	sp,sp,-24
80001b00:	afbf0014 	sw	ra,20(sp)
80001b04:	afbe0010 	sw	s8,16(sp)
80001b08:	03a0f021 	move	s8,sp
80001b0c:	3c028200 	lui	v0,0x8200
80001b10:	2444007c 	addiu	a0,v0,124
80001b14:	0c0004ed 	jal	800013b4 <_putk>
80001b18:	00000000 	nop
80001b1c:	03c0e821 	move	sp,s8
80001b20:	8fbf0014 	lw	ra,20(sp)
80001b24:	8fbe0010 	lw	s8,16(sp)
80001b28:	27bd0018 	addiu	sp,sp,24
80001b2c:	03e00008 	jr	ra
80001b30:	00000000 	nop

80001b34 <_isr_dma>:
80001b34:	27bdffe0 	addiu	sp,sp,-32
80001b38:	afbf001c 	sw	ra,28(sp)
80001b3c:	afbe0018 	sw	s8,24(sp)
80001b40:	03a0f021 	move	s8,sp
80001b44:	0c000100 	jal	80000400 <_procid>
80001b48:	00000000 	nop
80001b4c:	afc20010 	sw	v0,16(s8)
80001b50:	3c029300 	lui	v0,0x9300
80001b54:	24430000 	addiu	v1,v0,0
80001b58:	8fc20010 	lw	v0,16(s8)
80001b5c:	00021140 	sll	v0,v0,0x5
80001b60:	00621021 	addu	v0,v1,v0
80001b64:	afc20014 	sw	v0,20(s8)
80001b68:	8fc30010 	lw	v1,16(s8)
80001b6c:	8fc20014 	lw	v0,20(s8)
80001b70:	24420008 	addiu	v0,v0,8
80001b74:	8c440000 	lw	a0,0(v0)
80001b78:	3c028100 	lui	v0,0x8100
80001b7c:	00031880 	sll	v1,v1,0x2
80001b80:	2442000c 	addiu	v0,v0,12
80001b84:	00621021 	addu	v0,v1,v0
80001b88:	ac440000 	sw	a0,0(v0)
80001b8c:	8fc30010 	lw	v1,16(s8)
80001b90:	3c028100 	lui	v0,0x8100
80001b94:	24420000 	addiu	v0,v0,0
80001b98:	00621021 	addu	v0,v1,v0
80001b9c:	a0400000 	sb	zero,0(v0)
80001ba0:	8fc20014 	lw	v0,20(s8)
80001ba4:	2442000c 	addiu	v0,v0,12
80001ba8:	ac400000 	sw	zero,0(v0)
80001bac:	03c0e821 	move	sp,s8
80001bb0:	8fbf001c 	lw	ra,28(sp)
80001bb4:	8fbe0018 	lw	s8,24(sp)
80001bb8:	27bd0020 	addiu	sp,sp,32
80001bbc:	03e00008 	jr	ra
80001bc0:	00000000 	nop

80001bc4 <_isr_ioc>:
80001bc4:	27bdfff0 	addiu	sp,sp,-16
80001bc8:	afbe000c 	sw	s8,12(sp)
80001bcc:	03a0f021 	move	s8,sp
80001bd0:	3c029200 	lui	v0,0x9200
80001bd4:	24420000 	addiu	v0,v0,0
80001bd8:	afc20000 	sw	v0,0(s8)
80001bdc:	8fc20000 	lw	v0,0(s8)
80001be0:	24420010 	addiu	v0,v0,16
80001be4:	8c420000 	lw	v0,0(v0)
80001be8:	304300ff 	andi	v1,v0,0xff
80001bec:	3c028100 	lui	v0,0x8100
80001bf0:	a0430014 	sb	v1,20(v0)
80001bf4:	3c038100 	lui	v1,0x8100
80001bf8:	24020001 	li	v0,1
80001bfc:	a0620002 	sb	v0,2(v1)
80001c00:	03c0e821 	move	sp,s8
80001c04:	8fbe000c 	lw	s8,12(sp)
80001c08:	27bd0010 	addiu	sp,sp,16
80001c0c:	03e00008 	jr	ra
80001c10:	00000000 	nop

80001c14 <_isr_timer>:
80001c14:	27bdffd8 	addiu	sp,sp,-40
80001c18:	afbf0024 	sw	ra,36(sp)
80001c1c:	afbe0020 	sw	s8,32(sp)
80001c20:	03a0f021 	move	s8,sp
80001c24:	0c000100 	jal	80000400 <_procid>
80001c28:	00000000 	nop
80001c2c:	afc20018 	sw	v0,24(s8)
80001c30:	3c029100 	lui	v0,0x9100
80001c34:	24430000 	addiu	v1,v0,0
80001c38:	8fc20018 	lw	v0,24(s8)
80001c3c:	00021100 	sll	v0,v0,0x4
80001c40:	00621021 	addu	v0,v1,v0
80001c44:	afc2001c 	sw	v0,28(s8)
80001c48:	8fc2001c 	lw	v0,28(s8)
80001c4c:	2442000c 	addiu	v0,v0,12
80001c50:	ac400000 	sw	zero,0(v0)
80001c54:	3c028200 	lui	v0,0x8200
80001c58:	24440094 	addiu	a0,v0,148
80001c5c:	0c0004ed 	jal	800013b4 <_putk>
80001c60:	00000000 	nop
80001c64:	3c028200 	lui	v0,0x8200
80001c68:	244200c0 	addiu	v0,v0,192
80001c6c:	afc20014 	sw	v0,20(s8)
80001c70:	0c00010b 	jal	8000042c <_proctime>
80001c74:	00000000 	nop
80001c78:	afc20010 	sw	v0,16(s8)
80001c7c:	8fc20010 	lw	v0,16(s8)
80001c80:	00402021 	move	a0,v0
80001c84:	8fc50014 	lw	a1,20(s8)
80001c88:	0c00056e 	jal	800015b8 <_itoa_dec>
80001c8c:	00000000 	nop
80001c90:	8fc40014 	lw	a0,20(s8)
80001c94:	0c0004ed 	jal	800013b4 <_putk>
80001c98:	00000000 	nop
80001c9c:	3c028200 	lui	v0,0x8200
80001ca0:	244400cc 	addiu	a0,v0,204
80001ca4:	0c0004ed 	jal	800013b4 <_putk>
80001ca8:	00000000 	nop
80001cac:	03c0e821 	move	sp,s8
80001cb0:	8fbf0024 	lw	ra,36(sp)
80001cb4:	8fbe0020 	lw	s8,32(sp)
80001cb8:	27bd0028 	addiu	sp,sp,40
80001cbc:	03e00008 	jr	ra
80001cc0:	00000000 	nop

80001cc4 <_isr_tty_get_indexed>:
80001cc4:	27bdffd8 	addiu	sp,sp,-40
80001cc8:	afbf0024 	sw	ra,36(sp)
80001ccc:	afbe0020 	sw	s8,32(sp)
80001cd0:	03a0f021 	move	s8,sp
80001cd4:	afc40028 	sw	a0,40(s8)
80001cd8:	0c000100 	jal	80000400 <_procid>
80001cdc:	00000000 	nop
80001ce0:	afc20014 	sw	v0,20(s8)
80001ce4:	3c029000 	lui	v0,0x9000
80001ce8:	24440000 	addiu	a0,v0,0
80001cec:	8fc30014 	lw	v1,20(s8)
80001cf0:	8fc20028 	lw	v0,40(s8)
80001cf4:	00621021 	addu	v0,v1,v0
80001cf8:	00021100 	sll	v0,v0,0x4
80001cfc:	00821021 	addu	v0,a0,v0
80001d00:	afc20018 	sw	v0,24(s8)
80001d04:	0c000100 	jal	80000400 <_procid>
80001d08:	00000000 	nop
80001d0c:	00401821 	move	v1,v0
80001d10:	8fc20028 	lw	v0,40(s8)
80001d14:	00621021 	addu	v0,v1,v0
80001d18:	afc20010 	sw	v0,16(s8)
80001d1c:	8fc40010 	lw	a0,16(s8)
80001d20:	8fc20018 	lw	v0,24(s8)
80001d24:	24420008 	addiu	v0,v0,8
80001d28:	8c420000 	lw	v0,0(v0)
80001d2c:	304300ff 	andi	v1,v0,0xff
80001d30:	3c028100 	lui	v0,0x8100
80001d34:	24420018 	addiu	v0,v0,24
80001d38:	00821021 	addu	v0,a0,v0
80001d3c:	a0430000 	sb	v1,0(v0)
80001d40:	8fc30010 	lw	v1,16(s8)
80001d44:	3c028100 	lui	v0,0x8100
80001d48:	24420008 	addiu	v0,v0,8
80001d4c:	00621821 	addu	v1,v1,v0
80001d50:	24020001 	li	v0,1
80001d54:	a0620000 	sb	v0,0(v1)
80001d58:	03c0e821 	move	sp,s8
80001d5c:	8fbf0024 	lw	ra,36(sp)
80001d60:	8fbe0020 	lw	s8,32(sp)
80001d64:	27bd0028 	addiu	sp,sp,40
80001d68:	03e00008 	jr	ra
80001d6c:	00000000 	nop

80001d70 <_isr_tty_get>:
80001d70:	27bdffe8 	addiu	sp,sp,-24
80001d74:	afbf0014 	sw	ra,20(sp)
80001d78:	afbe0010 	sw	s8,16(sp)
80001d7c:	03a0f021 	move	s8,sp
80001d80:	00002021 	move	a0,zero
80001d84:	0c000731 	jal	80001cc4 <_isr_tty_get_indexed>
80001d88:	00000000 	nop
80001d8c:	03c0e821 	move	sp,s8
80001d90:	8fbf0014 	lw	ra,20(sp)
80001d94:	8fbe0010 	lw	s8,16(sp)
80001d98:	27bd0018 	addiu	sp,sp,24
80001d9c:	03e00008 	jr	ra
80001da0:	00000000 	nop

80001da4 <_isr_tty_get_task0>:
80001da4:	27bdffe8 	addiu	sp,sp,-24
80001da8:	afbf0014 	sw	ra,20(sp)
80001dac:	afbe0010 	sw	s8,16(sp)
80001db0:	03a0f021 	move	s8,sp
80001db4:	00002021 	move	a0,zero
80001db8:	0c000731 	jal	80001cc4 <_isr_tty_get_indexed>
80001dbc:	00000000 	nop
80001dc0:	03c0e821 	move	sp,s8
80001dc4:	8fbf0014 	lw	ra,20(sp)
80001dc8:	8fbe0010 	lw	s8,16(sp)
80001dcc:	27bd0018 	addiu	sp,sp,24
80001dd0:	03e00008 	jr	ra
80001dd4:	00000000 	nop

80001dd8 <_isr_tty_get_task1>:
80001dd8:	27bdffe8 	addiu	sp,sp,-24
80001ddc:	afbf0014 	sw	ra,20(sp)
80001de0:	afbe0010 	sw	s8,16(sp)
80001de4:	03a0f021 	move	s8,sp
80001de8:	24040001 	li	a0,1
80001dec:	0c000731 	jal	80001cc4 <_isr_tty_get_indexed>
80001df0:	00000000 	nop
80001df4:	03c0e821 	move	sp,s8
80001df8:	8fbf0014 	lw	ra,20(sp)
80001dfc:	8fbe0010 	lw	s8,16(sp)
80001e00:	27bd0018 	addiu	sp,sp,24
80001e04:	03e00008 	jr	ra
80001e08:	00000000 	nop

80001e0c <_isr_tty_get_task2>:
80001e0c:	27bdffe8 	addiu	sp,sp,-24
80001e10:	afbf0014 	sw	ra,20(sp)
80001e14:	afbe0010 	sw	s8,16(sp)
80001e18:	03a0f021 	move	s8,sp
80001e1c:	24040002 	li	a0,2
80001e20:	0c000731 	jal	80001cc4 <_isr_tty_get_indexed>
80001e24:	00000000 	nop
80001e28:	03c0e821 	move	sp,s8
80001e2c:	8fbf0014 	lw	ra,20(sp)
80001e30:	8fbe0010 	lw	s8,16(sp)
80001e34:	27bd0018 	addiu	sp,sp,24
80001e38:	03e00008 	jr	ra
80001e3c:	00000000 	nop

80001e40 <_isr_tty_get_task3>:
80001e40:	27bdffe8 	addiu	sp,sp,-24
80001e44:	afbf0014 	sw	ra,20(sp)
80001e48:	afbe0010 	sw	s8,16(sp)
80001e4c:	03a0f021 	move	s8,sp
80001e50:	24040003 	li	a0,3
80001e54:	0c000731 	jal	80001cc4 <_isr_tty_get_indexed>
80001e58:	00000000 	nop
80001e5c:	03c0e821 	move	sp,s8
80001e60:	8fbf0014 	lw	ra,20(sp)
80001e64:	8fbe0010 	lw	s8,16(sp)
80001e68:	27bd0018 	addiu	sp,sp,24
80001e6c:	03e00008 	jr	ra
80001e70:	00000000 	nop

80001e74 <_isr_switch>:
80001e74:	27bdffe0 	addiu	sp,sp,-32
80001e78:	afbf001c 	sw	ra,28(sp)
80001e7c:	afbe0018 	sw	s8,24(sp)
80001e80:	03a0f021 	move	s8,sp
80001e84:	0c000100 	jal	80000400 <_procid>
80001e88:	00000000 	nop
80001e8c:	afc20010 	sw	v0,16(s8)
80001e90:	3c029100 	lui	v0,0x9100
80001e94:	24430000 	addiu	v1,v0,0
80001e98:	8fc20010 	lw	v0,16(s8)
80001e9c:	00021100 	sll	v0,v0,0x4
80001ea0:	00621021 	addu	v0,v1,v0
80001ea4:	afc20014 	sw	v0,20(s8)
80001ea8:	8fc20014 	lw	v0,20(s8)
80001eac:	2442000c 	addiu	v0,v0,12
80001eb0:	ac400000 	sw	zero,0(v0)
80001eb4:	0c000630 	jal	800018c0 <_ctx_switch>
80001eb8:	00000000 	nop
80001ebc:	03c0e821 	move	sp,s8
80001ec0:	8fbf001c 	lw	ra,28(sp)
80001ec4:	8fbe0018 	lw	s8,24(sp)
80001ec8:	27bd0020 	addiu	sp,sp,32
80001ecc:	03e00008 	jr	ra
80001ed0:	00000000 	nop

80001ed4 <_cause>:
80001ed4:	27bdffd8 	addiu	sp,sp,-40
80001ed8:	afbf0024 	sw	ra,36(sp)
80001edc:	afbe0020 	sw	s8,32(sp)
80001ee0:	03a0f021 	move	s8,sp
80001ee4:	afc40028 	sw	a0,40(s8)
80001ee8:	3c028200 	lui	v0,0x8200
80001eec:	24420274 	addiu	v0,v0,628
80001ef0:	afc2001c 	sw	v0,28(s8)
80001ef4:	8fc20028 	lw	v0,40(s8)
80001ef8:	3c038200 	lui	v1,0x8200
80001efc:	00022080 	sll	a0,v0,0x2
80001f00:	2462039c 	addiu	v0,v1,924
80001f04:	00821021 	addu	v0,a0,v0
80001f08:	8c420000 	lw	v0,0(v0)
80001f0c:	00402021 	move	a0,v0
80001f10:	0c0004ed 	jal	800013b4 <_putk>
80001f14:	00000000 	nop
80001f18:	3c028200 	lui	v0,0x8200
80001f1c:	24440280 	addiu	a0,v0,640
80001f20:	0c0004ed 	jal	800013b4 <_putk>
80001f24:	00000000 	nop
80001f28:	0c0007f8 	jal	80001fe0 <_get_epc>
80001f2c:	00000000 	nop
80001f30:	afc20018 	sw	v0,24(s8)
80001f34:	8fc2001c 	lw	v0,28(s8)
80001f38:	24420002 	addiu	v0,v0,2
80001f3c:	8fc40018 	lw	a0,24(s8)
80001f40:	00402821 	move	a1,v0
80001f44:	0c0005b0 	jal	800016c0 <_itoa_hex>
80001f48:	00000000 	nop
80001f4c:	8fc4001c 	lw	a0,28(s8)
80001f50:	0c0004ed 	jal	800013b4 <_putk>
80001f54:	00000000 	nop
80001f58:	3c028200 	lui	v0,0x8200
80001f5c:	24440288 	addiu	a0,v0,648
80001f60:	0c0004ed 	jal	800013b4 <_putk>
80001f64:	00000000 	nop
80001f68:	0c000802 	jal	80002008 <_get_bar>
80001f6c:	00000000 	nop
80001f70:	afc20014 	sw	v0,20(s8)
80001f74:	8fc2001c 	lw	v0,28(s8)
80001f78:	24420002 	addiu	v0,v0,2
80001f7c:	8fc40014 	lw	a0,20(s8)
80001f80:	00402821 	move	a1,v0
80001f84:	0c0005b0 	jal	800016c0 <_itoa_hex>
80001f88:	00000000 	nop
80001f8c:	8fc4001c 	lw	a0,28(s8)
80001f90:	0c0004ed 	jal	800013b4 <_putk>
80001f94:	00000000 	nop
80001f98:	3c028200 	lui	v0,0x8200
80001f9c:	24440290 	addiu	a0,v0,656
80001fa0:	0c0004ed 	jal	800013b4 <_putk>
80001fa4:	00000000 	nop
80001fa8:	0c00080c 	jal	80002030 <_get_cause>
80001fac:	00000000 	nop
80001fb0:	afc20010 	sw	v0,16(s8)
80001fb4:	8fc2001c 	lw	v0,28(s8)
80001fb8:	24420002 	addiu	v0,v0,2
80001fbc:	8fc40010 	lw	a0,16(s8)
80001fc0:	00402821 	move	a1,v0
80001fc4:	0c0005b0 	jal	800016c0 <_itoa_hex>
80001fc8:	00000000 	nop
80001fcc:	8fc4001c 	lw	a0,28(s8)
80001fd0:	0c0004ed 	jal	800013b4 <_putk>
80001fd4:	00000000 	nop
80001fd8:	0c00050d 	jal	80001434 <_exit>
80001fdc:	00000000 	nop

80001fe0 <_get_epc>:
80001fe0:	27bdfff0 	addiu	sp,sp,-16
80001fe4:	afbe000c 	sw	s8,12(sp)
80001fe8:	03a0f021 	move	s8,sp
80001fec:	40027000 	mfc0	v0,c0_epc
80001ff0:	afc20000 	sw	v0,0(s8)
80001ff4:	8fc20000 	lw	v0,0(s8)
80001ff8:	03c0e821 	move	sp,s8
80001ffc:	8fbe000c 	lw	s8,12(sp)
80002000:	03e00008 	jr	ra
80002004:	27bd0010 	addiu	sp,sp,16

80002008 <_get_bar>:
80002008:	27bdfff0 	addiu	sp,sp,-16
8000200c:	afbe000c 	sw	s8,12(sp)
80002010:	03a0f021 	move	s8,sp
80002014:	40024000 	mfc0	v0,c0_badvaddr
80002018:	afc20000 	sw	v0,0(s8)
8000201c:	8fc20000 	lw	v0,0(s8)
80002020:	03c0e821 	move	sp,s8
80002024:	8fbe000c 	lw	s8,12(sp)
80002028:	03e00008 	jr	ra
8000202c:	27bd0010 	addiu	sp,sp,16

80002030 <_get_cause>:
80002030:	27bdfff0 	addiu	sp,sp,-16
80002034:	afbe000c 	sw	s8,12(sp)
80002038:	03a0f021 	move	s8,sp
8000203c:	40026800 	mfc0	v0,c0_cause
80002040:	afc20000 	sw	v0,0(s8)
80002044:	8fc20000 	lw	v0,0(s8)
80002048:	03c0e821 	move	sp,s8
8000204c:	8fbe000c 	lw	s8,12(sp)
80002050:	03e00008 	jr	ra
80002054:	27bd0010 	addiu	sp,sp,16

80002058 <_cause_ukn>:
80002058:	27bdffe8 	addiu	sp,sp,-24
8000205c:	afbf0014 	sw	ra,20(sp)
80002060:	afbe0010 	sw	s8,16(sp)
80002064:	03a0f021 	move	s8,sp
80002068:	00002021 	move	a0,zero
8000206c:	0c0007b5 	jal	80001ed4 <_cause>
80002070:	00000000 	nop
80002074:	03c0e821 	move	sp,s8
80002078:	8fbf0014 	lw	ra,20(sp)
8000207c:	8fbe0010 	lw	s8,16(sp)
80002080:	27bd0018 	addiu	sp,sp,24
80002084:	03e00008 	jr	ra
80002088:	00000000 	nop

8000208c <_cause_adel>:
8000208c:	27bdffe8 	addiu	sp,sp,-24
80002090:	afbf0014 	sw	ra,20(sp)
80002094:	afbe0010 	sw	s8,16(sp)
80002098:	03a0f021 	move	s8,sp
8000209c:	24040001 	li	a0,1
800020a0:	0c0007b5 	jal	80001ed4 <_cause>
800020a4:	00000000 	nop
800020a8:	03c0e821 	move	sp,s8
800020ac:	8fbf0014 	lw	ra,20(sp)
800020b0:	8fbe0010 	lw	s8,16(sp)
800020b4:	27bd0018 	addiu	sp,sp,24
800020b8:	03e00008 	jr	ra
800020bc:	00000000 	nop

800020c0 <_cause_ades>:
800020c0:	27bdffe8 	addiu	sp,sp,-24
800020c4:	afbf0014 	sw	ra,20(sp)
800020c8:	afbe0010 	sw	s8,16(sp)
800020cc:	03a0f021 	move	s8,sp
800020d0:	24040002 	li	a0,2
800020d4:	0c0007b5 	jal	80001ed4 <_cause>
800020d8:	00000000 	nop
800020dc:	03c0e821 	move	sp,s8
800020e0:	8fbf0014 	lw	ra,20(sp)
800020e4:	8fbe0010 	lw	s8,16(sp)
800020e8:	27bd0018 	addiu	sp,sp,24
800020ec:	03e00008 	jr	ra
800020f0:	00000000 	nop

800020f4 <_cause_ibe>:
800020f4:	27bdffe8 	addiu	sp,sp,-24
800020f8:	afbf0014 	sw	ra,20(sp)
800020fc:	afbe0010 	sw	s8,16(sp)
80002100:	03a0f021 	move	s8,sp
80002104:	24040003 	li	a0,3
80002108:	0c0007b5 	jal	80001ed4 <_cause>
8000210c:	00000000 	nop
80002110:	03c0e821 	move	sp,s8
80002114:	8fbf0014 	lw	ra,20(sp)
80002118:	8fbe0010 	lw	s8,16(sp)
8000211c:	27bd0018 	addiu	sp,sp,24
80002120:	03e00008 	jr	ra
80002124:	00000000 	nop

80002128 <_cause_dbe>:
80002128:	27bdffe8 	addiu	sp,sp,-24
8000212c:	afbf0014 	sw	ra,20(sp)
80002130:	afbe0010 	sw	s8,16(sp)
80002134:	03a0f021 	move	s8,sp
80002138:	24040004 	li	a0,4
8000213c:	0c0007b5 	jal	80001ed4 <_cause>
80002140:	00000000 	nop
80002144:	03c0e821 	move	sp,s8
80002148:	8fbf0014 	lw	ra,20(sp)
8000214c:	8fbe0010 	lw	s8,16(sp)
80002150:	27bd0018 	addiu	sp,sp,24
80002154:	03e00008 	jr	ra
80002158:	00000000 	nop

8000215c <_cause_bp>:
8000215c:	27bdffe8 	addiu	sp,sp,-24
80002160:	afbf0014 	sw	ra,20(sp)
80002164:	afbe0010 	sw	s8,16(sp)
80002168:	03a0f021 	move	s8,sp
8000216c:	24040005 	li	a0,5
80002170:	0c0007b5 	jal	80001ed4 <_cause>
80002174:	00000000 	nop
80002178:	03c0e821 	move	sp,s8
8000217c:	8fbf0014 	lw	ra,20(sp)
80002180:	8fbe0010 	lw	s8,16(sp)
80002184:	27bd0018 	addiu	sp,sp,24
80002188:	03e00008 	jr	ra
8000218c:	00000000 	nop

80002190 <_cause_ri>:
80002190:	27bdffe8 	addiu	sp,sp,-24
80002194:	afbf0014 	sw	ra,20(sp)
80002198:	afbe0010 	sw	s8,16(sp)
8000219c:	03a0f021 	move	s8,sp
800021a0:	24040006 	li	a0,6
800021a4:	0c0007b5 	jal	80001ed4 <_cause>
800021a8:	00000000 	nop
800021ac:	03c0e821 	move	sp,s8
800021b0:	8fbf0014 	lw	ra,20(sp)
800021b4:	8fbe0010 	lw	s8,16(sp)
800021b8:	27bd0018 	addiu	sp,sp,24
800021bc:	03e00008 	jr	ra
800021c0:	00000000 	nop

800021c4 <_cause_cpu>:
800021c4:	27bdffe8 	addiu	sp,sp,-24
800021c8:	afbf0014 	sw	ra,20(sp)
800021cc:	afbe0010 	sw	s8,16(sp)
800021d0:	03a0f021 	move	s8,sp
800021d4:	24040007 	li	a0,7
800021d8:	0c0007b5 	jal	80001ed4 <_cause>
800021dc:	00000000 	nop
800021e0:	03c0e821 	move	sp,s8
800021e4:	8fbf0014 	lw	ra,20(sp)
800021e8:	8fbe0010 	lw	s8,16(sp)
800021ec:	27bd0018 	addiu	sp,sp,24
800021f0:	03e00008 	jr	ra
800021f4:	00000000 	nop

800021f8 <_cause_ovf>:
800021f8:	27bdffe8 	addiu	sp,sp,-24
800021fc:	afbf0014 	sw	ra,20(sp)
80002200:	afbe0010 	sw	s8,16(sp)
80002204:	03a0f021 	move	s8,sp
80002208:	24040008 	li	a0,8
8000220c:	0c0007b5 	jal	80001ed4 <_cause>
80002210:	00000000 	nop
80002214:	03c0e821 	move	sp,s8
80002218:	8fbf0014 	lw	ra,20(sp)
8000221c:	8fbe0010 	lw	s8,16(sp)
80002220:	27bd0018 	addiu	sp,sp,24
80002224:	03e00008 	jr	ra
80002228:	00000000 	nop

Disassembly of section seg_kdata:

82000000 <dectab.956-0x28>:
82000000:	21210a0a 	addi	at,t1,2570
82000004:	78452021 	0x78452021
82000008:	50207469 	beqzl	at,8201d1b0 <_current_task_array+0x1cbf0>
8200000c:	65636f72 	0x65636f72
82000010:	726f7373 	0x726f7373
82000014:	5f783020 	0x5f783020
82000018:	21205f5f 	addi	zero,t1,24415
8200001c:	000a2121 	0xa2121
	...

82000028 <dectab.956>:
82000028:	33323130 	andi	s2,t9,0x3130
8200002c:	37363534 	ori	s6,t9,0x3534
82000030:	00003938 	0x3938

82000034 <hexatab.975>:
82000034:	33323130 	andi	s2,t9,0x3130
82000038:	37363534 	ori	s6,t9,0x3534
8200003c:	42413938 	c0	0x413938
82000040:	00004443 	sra	t0,zero,0x11
82000044:	21210a0a 	addi	at,t1,2570
82000048:	6e552021 	0x6e552021
8200004c:	69666564 	0x69666564
82000050:	2064656e 	addi	a0,v1,25966
82000054:	74737953 	jalx	81cde54c <_barrier_count+0xcde510>
82000058:	43206d65 	c0	0x1206d65
8200005c:	206c6c61 	addi	t4,v1,27745
82000060:	0a212121 	j	88848484 <_current_task_array+0x6847ec4>
82000064:	00000000 	nop
82000068:	4350450a 	c0	0x150450a
8200006c:	00203d20 	0x203d20
82000070:	30307830 	andi	s0,at,0x7830
82000074:	30303030 	andi	s0,at,0x3030
82000078:	00003030 	tge	zero,zero,0xc0
8200007c:	21210a0a 	addi	at,t1,2570
82000080:	65442021 	0x65442021
82000084:	6c756166 	0x6c756166
82000088:	53492074 	beql	k0,t1,8200825c <_current_task_array+0x7c9c>
8200008c:	21212052 	addi	at,t1,8274
82000090:	00000a21 	0xa21
82000094:	21210a0a 	addi	at,t1,2570
82000098:	6e492021 	0x6e492021
8200009c:	72726574 	0x72726574
820000a0:	20747075 	addi	s4,v1,28789
820000a4:	656d6974 	0x656d6974
820000a8:	65722072 	0x65722072
820000ac:	76696563 	jalx	89a5958c <_current_task_array+0x7a58fcc>
820000b0:	61206465 	0x61206465
820000b4:	79632074 	0x79632074
820000b8:	3a656c63 	xori	a1,s3,0x6c63
820000bc:	00000020 	add	zero,zero,zero
820000c0:	20202020 	addi	zero,at,8224
820000c4:	20202020 	addi	zero,at,8224
820000c8:	00002020 	add	a0,zero,zero
820000cc:	00000a0a 	0xa0a

820000d0 <_cause_vector>:
820000d0:	80000200 	lb	zero,512(zero)
820000d4:	80002058 	lb	zero,8280(zero)
820000d8:	80002058 	lb	zero,8280(zero)
820000dc:	80002058 	lb	zero,8280(zero)
820000e0:	8000208c 	lb	zero,8332(zero)
820000e4:	800020c0 	lb	zero,8384(zero)
820000e8:	800020f4 	lb	zero,8436(zero)
820000ec:	80002128 	lb	zero,8488(zero)
820000f0:	800001a0 	lb	zero,416(zero)
820000f4:	8000215c 	lb	zero,8540(zero)
820000f8:	80002190 	lb	zero,8592(zero)
820000fc:	800021c4 	lb	zero,8644(zero)
82000100:	800021f8 	lb	zero,8696(zero)
82000104:	80002058 	lb	zero,8280(zero)
82000108:	80002058 	lb	zero,8280(zero)
8200010c:	80002058 	lb	zero,8280(zero)
82000110:	78450a0a 	0x78450a0a
82000114:	74706563 	jalx	81c1958c <_barrier_count+0xc19550>
82000118:	206e6f69 	addi	t6,v1,28521
8200011c:	7473203a 	jalx	81cc80e8 <_barrier_count+0xcc80ac>
82000120:	676e6172 	0x676e6172
82000124:	6e752065 	0x6e752065
82000128:	776f6e6b 	jalx	8dbdb9ac <_current_task_array+0xbbdb3ec>
8200012c:	6163206e 	0x6163206e
82000130:	0a657375 	j	8995cdd4 <_current_task_array+0x795c814>
82000134:	00000000 	nop
82000138:	78450a0a 	0x78450a0a
8200013c:	74706563 	jalx	81c1958c <_barrier_count+0xc19550>
82000140:	206e6f69 	addi	t6,v1,28521
82000144:	6c69203a 	0x6c69203a
82000148:	6167656c 	0x6167656c
8200014c:	6572206c 	0x6572206c
82000150:	61206461 	0x61206461
82000154:	65726464 	0x65726464
82000158:	0a207373 	j	8881cdcc <_current_task_array+0x681c80c>
8200015c:	00000000 	nop
82000160:	78450a0a 	0x78450a0a
82000164:	74706563 	jalx	81c1958c <_barrier_count+0xc19550>
82000168:	206e6f69 	addi	t6,v1,28521
8200016c:	6c69203a 	0x6c69203a
82000170:	6167656c 	0x6167656c
82000174:	7277206c 	0x7277206c
82000178:	20657469 	addi	a1,v1,29801
8200017c:	72646461 	0x72646461
82000180:	0a737365 	j	89cdcd94 <_current_task_array+0x7cdc7d4>
82000184:	00000000 	nop
82000188:	78450a0a 	0x78450a0a
8200018c:	74706563 	jalx	81c1958c <_barrier_count+0xc19550>
82000190:	206e6f69 	addi	t6,v1,28521
82000194:	6e69203a 	0x6e69203a
82000198:	62207473 	0x62207473
8200019c:	65207375 	0x65207375
820001a0:	726f7272 	0x726f7272
820001a4:	20202020 	addi	zero,at,8224
820001a8:	0a202020 	j	88808080 <_current_task_array+0x6807ac0>
820001ac:	00000000 	nop
820001b0:	78450a0a 	0x78450a0a
820001b4:	74706563 	jalx	81c1958c <_barrier_count+0xc19550>
820001b8:	206e6f69 	addi	t6,v1,28521
820001bc:	6164203a 	0x6164203a
820001c0:	62206174 	0x62206174
820001c4:	65207375 	0x65207375
820001c8:	726f7272 	0x726f7272
820001cc:	20202020 	addi	zero,at,8224
820001d0:	0a202020 	j	88808080 <_current_task_array+0x6807ac0>
820001d4:	00000000 	nop
820001d8:	78450a0a 	0x78450a0a
820001dc:	74706563 	jalx	81c1958c <_barrier_count+0xc19550>
820001e0:	206e6f69 	addi	t6,v1,28521
820001e4:	7262203a 	0x7262203a
820001e8:	706b6165 	0x706b6165
820001ec:	746e696f 	jalx	81b9a5bc <_barrier_count+0xb9a580>
820001f0:	20202020 	addi	zero,at,8224
820001f4:	20202020 	addi	zero,at,8224
820001f8:	0a202020 	j	88808080 <_current_task_array+0x6807ac0>
820001fc:	00000000 	nop
82000200:	78450a0a 	0x78450a0a
82000204:	74706563 	jalx	81c1958c <_barrier_count+0xc19550>
82000208:	206e6f69 	addi	t6,v1,28521
8200020c:	6572203a 	0x6572203a
82000210:	76726573 	jalx	89c995cc <_current_task_array+0x7c9900c>
82000214:	69206465 	0x69206465
82000218:	7274736e 	0x7274736e
8200021c:	69746375 	0x69746375
82000220:	0a206e6f 	j	8881b9bc <_current_task_array+0x681b3fc>
82000224:	00000000 	nop
82000228:	78450a0a 	0x78450a0a
8200022c:	74706563 	jalx	81c1958c <_barrier_count+0xc19550>
82000230:	206e6f69 	addi	t6,v1,28521
82000234:	6c69203a 	0x6c69203a
82000238:	6167656c 	0x6167656c
8200023c:	6f63206c 	0x6f63206c
82000240:	636f7270 	0x636f7270
82000244:	63636120 	0x63636120
82000248:	0a737365 	j	89cdcd94 <_current_task_array+0x7cdc7d4>
8200024c:	78450a0a 	0x78450a0a
82000250:	74706563 	jalx	81c1958c <_barrier_count+0xc19550>
82000254:	206e6f69 	addi	t6,v1,28521
82000258:	7261203a 	0x7261203a
8200025c:	6d687469 	0x6d687469
82000260:	63697465 	0x63697465
82000264:	65766f20 	0x65766f20
82000268:	6f6c6672 	0x6f6c6672
8200026c:	0a202077 	j	888081dc <_current_task_array+0x6807c1c>
82000270:	00000000 	nop
82000274:	30307830 	andi	s0,at,0x7830
82000278:	30303030 	andi	s0,at,0x3030
8200027c:	00003030 	tge	zero,zero,0xc0
82000280:	4350450a 	c0	0x150450a
82000284:	00203d20 	0x203d20
82000288:	5241420a 	beql	s2,at,82010ab4 <_current_task_array+0x104f4>
8200028c:	00203d20 	0x203d20
82000290:	5541430a 	bnel	t2,at,82010ebc <_current_task_array+0x108fc>
82000294:	3d204553 	0x3d204553
82000298:	00000020 	add	zero,zero,zero

8200029c <_syscall_vector>:
8200029c:	80000400 	lb	zero,1024(zero)
820002a0:	8000042c 	lb	zero,1068(zero)
820002a4:	80000620 	lb	zero,1568(zero)
820002a8:	80000878 	lb	zero,2168(zero)
820002ac:	80000454 	lb	zero,1108(zero)
820002b0:	800004e8 	lb	zero,1256(zero)
820002b4:	80000abc 	lb	zero,2748(zero)
820002b8:	80000b30 	lb	zero,2864(zero)
820002bc:	800019c0 	lb	zero,6592(zero)
820002c0:	800019c0 	lb	zero,6592(zero)
820002c4:	80000750 	lb	zero,1872(zero)
820002c8:	800019c0 	lb	zero,6592(zero)
820002cc:	800019c0 	lb	zero,6592(zero)
820002d0:	800018c0 	lb	zero,6336(zero)
820002d4:	80001434 	lb	zero,5172(zero)
820002d8:	80001a5c 	lb	zero,6748(zero)
820002dc:	80000e58 	lb	zero,3672(zero)
820002e0:	80000ff8 	lb	zero,4088(zero)
820002e4:	8000108c 	lb	zero,4236(zero)
820002e8:	800011dc 	lb	zero,4572(zero)
820002ec:	8000132c 	lb	zero,4908(zero)
820002f0:	80000ba8 	lb	zero,2984(zero)
820002f4:	80000ccc 	lb	zero,3276(zero)
820002f8:	80000dcc 	lb	zero,3532(zero)
820002fc:	8000174c 	lb	zero,5964(zero)
82000300:	800017f4 	lb	zero,6132(zero)
82000304:	800019c0 	lb	zero,6592(zero)
82000308:	800019c0 	lb	zero,6592(zero)
8200030c:	800019c0 	lb	zero,6592(zero)
82000310:	800019c0 	lb	zero,6592(zero)
82000314:	800019c0 	lb	zero,6592(zero)
82000318:	800019c0 	lb	zero,6592(zero)

8200031c <_interrupt_vector>:
8200031c:	80001afc 	lb	zero,6908(zero)
82000320:	80001afc 	lb	zero,6908(zero)
82000324:	80001afc 	lb	zero,6908(zero)
82000328:	80001afc 	lb	zero,6908(zero)
8200032c:	80001afc 	lb	zero,6908(zero)
82000330:	80001afc 	lb	zero,6908(zero)
82000334:	80001afc 	lb	zero,6908(zero)
82000338:	80001afc 	lb	zero,6908(zero)
8200033c:	80001afc 	lb	zero,6908(zero)
82000340:	80001afc 	lb	zero,6908(zero)
82000344:	80001afc 	lb	zero,6908(zero)
82000348:	80001afc 	lb	zero,6908(zero)
8200034c:	80001afc 	lb	zero,6908(zero)
82000350:	80001afc 	lb	zero,6908(zero)
82000354:	80001afc 	lb	zero,6908(zero)
82000358:	80001afc 	lb	zero,6908(zero)
8200035c:	80001afc 	lb	zero,6908(zero)
82000360:	80001afc 	lb	zero,6908(zero)
82000364:	80001afc 	lb	zero,6908(zero)
82000368:	80001afc 	lb	zero,6908(zero)
8200036c:	80001afc 	lb	zero,6908(zero)
82000370:	80001afc 	lb	zero,6908(zero)
82000374:	80001afc 	lb	zero,6908(zero)
82000378:	80001afc 	lb	zero,6908(zero)
8200037c:	80001afc 	lb	zero,6908(zero)
82000380:	80001afc 	lb	zero,6908(zero)
82000384:	80001afc 	lb	zero,6908(zero)
82000388:	80001afc 	lb	zero,6908(zero)
8200038c:	80001afc 	lb	zero,6908(zero)
82000390:	80001afc 	lb	zero,6908(zero)
82000394:	80001afc 	lb	zero,6908(zero)
82000398:	80001afc 	lb	zero,6908(zero)

8200039c <exc_message_causes>:
8200039c:	82000110 	lb	zero,272(s0)
820003a0:	82000138 	lb	zero,312(s0)
820003a4:	82000160 	lb	zero,352(s0)
820003a8:	82000188 	lb	zero,392(s0)
820003ac:	820001b0 	lb	zero,432(s0)
820003b0:	820001d8 	lb	zero,472(s0)
820003b4:	82000200 	lb	zero,512(s0)
820003b8:	82000228 	lb	zero,552(s0)

820003bc <_task_number_array>:
820003bc:	00000101 	0x101

820003c0 <_task_context_array>:
	...

820005c0 <_current_task_array>:
820005c0:	00000000 	nop

Disassembly of section seg_kunc:

81000000 <_dma_busy>:
	...

81000002 <_ioc_done>:
	...

81000004 <_ioc_lock>:
81000004:	00000000 	nop

81000008 <_tty_get_full>:
81000008:	00000000 	nop

8100000c <_dma_status>:
	...

81000014 <_ioc_status>:
81000014:	00000000 	nop

81000018 <_tty_get_buf>:
81000018:	00000000 	nop

8100001c <_barrier_initial_value>:
	...

8100003c <_barrier_count>:
	...

Disassembly of section .reginfo:

00000000 <.reginfo>:
   0:	34000000 	li	zero,0x0
	...

Disassembly of section .pdr:

00000000 <.pdr>:
   0:	80000400 	lb	zero,1024(zero)
   4:	40000000 	mfc0	zero,c0_index
   8:	fffffffc 	sdc3	$31,-4(ra)
	...
  14:	00000010 	mfhi	zero
  18:	0000001e 	0x1e
  1c:	0000001f 	0x1f
  20:	8000042c 	lb	zero,1068(zero)
  24:	40000000 	mfc0	zero,c0_index
  28:	fffffffc 	sdc3	$31,-4(ra)
	...
  34:	00000010 	mfhi	zero
  38:	0000001e 	0x1e
  3c:	0000001f 	0x1f
  40:	80000454 	lb	zero,1108(zero)
  44:	c0000000 	ll	zero,0(zero)
  48:	fffffffc 	sdc3	$31,-4(ra)
	...
  54:	00000028 	0x28
  58:	0000001e 	0x1e
  5c:	0000001f 	0x1f
  60:	800004e8 	lb	zero,1256(zero)
  64:	c0000000 	ll	zero,0(zero)
  68:	fffffffc 	sdc3	$31,-4(ra)
	...
  74:	00000028 	0x28
  78:	0000001e 	0x1e
  7c:	0000001f 	0x1f
  80:	80000580 	lb	zero,1408(zero)
  84:	40000000 	mfc0	zero,c0_index
  88:	fffffffc 	sdc3	$31,-4(ra)
	...
  94:	00000010 	mfhi	zero
  98:	0000001e 	0x1e
  9c:	0000001f 	0x1f
  a0:	80000620 	lb	zero,1568(zero)
  a4:	c0000000 	ll	zero,0(zero)
  a8:	fffffffc 	sdc3	$31,-4(ra)
	...
  b4:	00000030 	tge	zero,zero
  b8:	0000001e 	0x1e
  bc:	0000001f 	0x1f
  c0:	80000750 	lb	zero,1872(zero)
  c4:	c0000000 	ll	zero,0(zero)
  c8:	fffffffc 	sdc3	$31,-4(ra)
	...
  d4:	00000030 	tge	zero,zero
  d8:	0000001e 	0x1e
  dc:	0000001f 	0x1f
  e0:	80000878 	lb	zero,2168(zero)
  e4:	c0000000 	ll	zero,0(zero)
  e8:	fffffffc 	sdc3	$31,-4(ra)
	...
  f4:	00000030 	tge	zero,zero
  f8:	0000001e 	0x1e
  fc:	0000001f 	0x1f
 100:	80000990 	lb	zero,2448(zero)
 104:	c0000000 	ll	zero,0(zero)
 108:	fffffffc 	sdc3	$31,-4(ra)
	...
 114:	00000028 	0x28
 118:	0000001e 	0x1e
 11c:	0000001f 	0x1f
 120:	80000a24 	lb	zero,2596(zero)
 124:	c0000000 	ll	zero,0(zero)
 128:	fffffffc 	sdc3	$31,-4(ra)
	...
 134:	00000028 	0x28
 138:	0000001e 	0x1e
 13c:	0000001f 	0x1f
 140:	80000abc 	lb	zero,2748(zero)
 144:	40000000 	mfc0	zero,c0_index
 148:	fffffffc 	sdc3	$31,-4(ra)
	...
 154:	00000018 	mult	zero,zero
 158:	0000001e 	0x1e
 15c:	0000001f 	0x1f
 160:	80000b30 	lb	zero,2864(zero)
 164:	40000000 	mfc0	zero,c0_index
 168:	fffffffc 	sdc3	$31,-4(ra)
	...
 174:	00000018 	mult	zero,zero
 178:	0000001e 	0x1e
 17c:	0000001f 	0x1f
 180:	80000ba8 	lb	zero,2984(zero)
 184:	c0000000 	ll	zero,0(zero)
 188:	fffffffc 	sdc3	$31,-4(ra)
	...
 194:	00000028 	0x28
 198:	0000001e 	0x1e
 19c:	0000001f 	0x1f
 1a0:	80000c8c 	lb	zero,3212(zero)
 1a4:	40000000 	mfc0	zero,c0_index
 1a8:	fffffffc 	sdc3	$31,-4(ra)
	...
 1b4:	00000008 	jr	zero
 1b8:	0000001e 	0x1e
 1bc:	0000001f 	0x1f
 1c0:	80000ccc 	lb	zero,3276(zero)
 1c4:	c0000000 	ll	zero,0(zero)
 1c8:	fffffffc 	sdc3	$31,-4(ra)
	...
 1d4:	00000028 	0x28
 1d8:	0000001e 	0x1e
 1dc:	0000001f 	0x1f
 1e0:	80000dcc 	lb	zero,3532(zero)
 1e4:	40000000 	mfc0	zero,c0_index
 1e8:	fffffffc 	sdc3	$31,-4(ra)
	...
 1f4:	00000010 	mfhi	zero
 1f8:	0000001e 	0x1e
 1fc:	0000001f 	0x1f
 200:	80000e58 	lb	zero,3672(zero)
 204:	c0000000 	ll	zero,0(zero)
 208:	fffffffc 	sdc3	$31,-4(ra)
	...
 214:	00000028 	0x28
 218:	0000001e 	0x1e
 21c:	0000001f 	0x1f
 220:	80000eec 	lb	zero,3820(zero)
 224:	40000000 	mfc0	zero,c0_index
 228:	fffffffc 	sdc3	$31,-4(ra)
	...
 234:	00000018 	mult	zero,zero
 238:	0000001e 	0x1e
 23c:	0000001f 	0x1f
 240:	80000ff8 	lb	zero,4088(zero)
 244:	c0000000 	ll	zero,0(zero)
 248:	fffffffc 	sdc3	$31,-4(ra)
	...
 254:	00000028 	0x28
 258:	0000001e 	0x1e
 25c:	0000001f 	0x1f
 260:	8000108c 	lb	zero,4236(zero)
 264:	c0000000 	ll	zero,0(zero)
 268:	fffffffc 	sdc3	$31,-4(ra)
	...
 274:	00000038 	0x38
 278:	0000001e 	0x1e
 27c:	0000001f 	0x1f
 280:	800011dc 	lb	zero,4572(zero)
 284:	c0000000 	ll	zero,0(zero)
 288:	fffffffc 	sdc3	$31,-4(ra)
	...
 294:	00000038 	0x38
 298:	0000001e 	0x1e
 29c:	0000001f 	0x1f
 2a0:	8000132c 	lb	zero,4908(zero)
 2a4:	c0000000 	ll	zero,0(zero)
 2a8:	fffffffc 	sdc3	$31,-4(ra)
	...
 2b4:	00000028 	0x28
 2b8:	0000001e 	0x1e
 2bc:	0000001f 	0x1f
 2c0:	800013b4 	lb	zero,5044(zero)
 2c4:	c0000000 	ll	zero,0(zero)
 2c8:	fffffffc 	sdc3	$31,-4(ra)
	...
 2d4:	00000020 	add	zero,zero,zero
 2d8:	0000001e 	0x1e
 2dc:	0000001f 	0x1f
 2e0:	80001434 	lb	zero,5172(zero)
 2e4:	c0000000 	ll	zero,0(zero)
 2e8:	fffffffc 	sdc3	$31,-4(ra)
	...
 2f4:	00000048 	0x48
 2f8:	0000001e 	0x1e
 2fc:	0000001f 	0x1f
 300:	80001530 	lb	zero,5424(zero)
 304:	40000000 	mfc0	zero,c0_index
 308:	fffffffc 	sdc3	$31,-4(ra)
	...
 314:	00000018 	mult	zero,zero
 318:	0000001e 	0x1e
 31c:	0000001f 	0x1f
 320:	800015b8 	lb	zero,5560(zero)
 324:	40000000 	mfc0	zero,c0_index
 328:	fffffffc 	sdc3	$31,-4(ra)
	...
 334:	00000018 	mult	zero,zero
 338:	0000001e 	0x1e
 33c:	0000001f 	0x1f
 340:	800016c0 	lb	zero,5824(zero)
 344:	40000000 	mfc0	zero,c0_index
 348:	fffffffc 	sdc3	$31,-4(ra)
	...
 354:	00000010 	mfhi	zero
 358:	0000001e 	0x1e
 35c:	0000001f 	0x1f
 360:	8000174c 	lb	zero,5964(zero)
 364:	40000000 	mfc0	zero,c0_index
 368:	fffffffc 	sdc3	$31,-4(ra)
	...
 374:	00000018 	mult	zero,zero
 378:	0000001e 	0x1e
 37c:	0000001f 	0x1f
 380:	800017f4 	lb	zero,6132(zero)
 384:	40000000 	mfc0	zero,c0_index
 388:	fffffffc 	sdc3	$31,-4(ra)
	...
 394:	00000020 	add	zero,zero,zero
 398:	0000001e 	0x1e
 39c:	0000001f 	0x1f
 3a0:	800018c0 	lb	zero,6336(zero)
 3a4:	c0000000 	ll	zero,0(zero)
 3a8:	fffffffc 	sdc3	$31,-4(ra)
	...
 3b4:	00000030 	tge	zero,zero
 3b8:	0000001e 	0x1e
 3bc:	0000001f 	0x1f
 3c0:	800019c0 	lb	zero,6592(zero)
 3c4:	c0000000 	ll	zero,0(zero)
 3c8:	fffffffc 	sdc3	$31,-4(ra)
	...
 3d4:	00000020 	add	zero,zero,zero
 3d8:	0000001e 	0x1e
 3dc:	0000001f 	0x1f
 3e0:	80001a34 	lb	zero,6708(zero)
 3e4:	40000000 	mfc0	zero,c0_index
 3e8:	fffffffc 	sdc3	$31,-4(ra)
	...
 3f4:	00000010 	mfhi	zero
 3f8:	0000001e 	0x1e
 3fc:	0000001f 	0x1f
 400:	80001a5c 	lb	zero,6748(zero)
 404:	40000000 	mfc0	zero,c0_index
 408:	fffffffc 	sdc3	$31,-4(ra)
	...
 414:	00000008 	jr	zero
 418:	0000001e 	0x1e
 41c:	0000001f 	0x1f
 420:	80001a80 	lb	zero,6784(zero)
 424:	c0000000 	ll	zero,0(zero)
 428:	fffffffc 	sdc3	$31,-4(ra)
	...
 434:	00000020 	add	zero,zero,zero
 438:	0000001e 	0x1e
 43c:	0000001f 	0x1f
 440:	80001afc 	lb	zero,6908(zero)
 444:	c0000000 	ll	zero,0(zero)
 448:	fffffffc 	sdc3	$31,-4(ra)
	...
 454:	00000018 	mult	zero,zero
 458:	0000001e 	0x1e
 45c:	0000001f 	0x1f
 460:	80001b34 	lb	zero,6964(zero)
 464:	c0000000 	ll	zero,0(zero)
 468:	fffffffc 	sdc3	$31,-4(ra)
	...
 474:	00000020 	add	zero,zero,zero
 478:	0000001e 	0x1e
 47c:	0000001f 	0x1f
 480:	80001bc4 	lb	zero,7108(zero)
 484:	40000000 	mfc0	zero,c0_index
 488:	fffffffc 	sdc3	$31,-4(ra)
	...
 494:	00000010 	mfhi	zero
 498:	0000001e 	0x1e
 49c:	0000001f 	0x1f
 4a0:	80001c14 	lb	zero,7188(zero)
 4a4:	c0000000 	ll	zero,0(zero)
 4a8:	fffffffc 	sdc3	$31,-4(ra)
	...
 4b4:	00000028 	0x28
 4b8:	0000001e 	0x1e
 4bc:	0000001f 	0x1f
 4c0:	80001cc4 	lb	zero,7364(zero)
 4c4:	c0000000 	ll	zero,0(zero)
 4c8:	fffffffc 	sdc3	$31,-4(ra)
	...
 4d4:	00000028 	0x28
 4d8:	0000001e 	0x1e
 4dc:	0000001f 	0x1f
 4e0:	80001d70 	lb	zero,7536(zero)
 4e4:	c0000000 	ll	zero,0(zero)
 4e8:	fffffffc 	sdc3	$31,-4(ra)
	...
 4f4:	00000018 	mult	zero,zero
 4f8:	0000001e 	0x1e
 4fc:	0000001f 	0x1f
 500:	80001da4 	lb	zero,7588(zero)
 504:	c0000000 	ll	zero,0(zero)
 508:	fffffffc 	sdc3	$31,-4(ra)
	...
 514:	00000018 	mult	zero,zero
 518:	0000001e 	0x1e
 51c:	0000001f 	0x1f
 520:	80001dd8 	lb	zero,7640(zero)
 524:	c0000000 	ll	zero,0(zero)
 528:	fffffffc 	sdc3	$31,-4(ra)
	...
 534:	00000018 	mult	zero,zero
 538:	0000001e 	0x1e
 53c:	0000001f 	0x1f
 540:	80001e0c 	lb	zero,7692(zero)
 544:	c0000000 	ll	zero,0(zero)
 548:	fffffffc 	sdc3	$31,-4(ra)
	...
 554:	00000018 	mult	zero,zero
 558:	0000001e 	0x1e
 55c:	0000001f 	0x1f
 560:	80001e40 	lb	zero,7744(zero)
 564:	c0000000 	ll	zero,0(zero)
 568:	fffffffc 	sdc3	$31,-4(ra)
	...
 574:	00000018 	mult	zero,zero
 578:	0000001e 	0x1e
 57c:	0000001f 	0x1f
 580:	80001e74 	lb	zero,7796(zero)
 584:	c0000000 	ll	zero,0(zero)
 588:	fffffffc 	sdc3	$31,-4(ra)
	...
 594:	00000020 	add	zero,zero,zero
 598:	0000001e 	0x1e
 59c:	0000001f 	0x1f
 5a0:	80001ed4 	lb	zero,7892(zero)
 5a4:	c0000000 	ll	zero,0(zero)
 5a8:	fffffffc 	sdc3	$31,-4(ra)
	...
 5b4:	00000028 	0x28
 5b8:	0000001e 	0x1e
 5bc:	0000001f 	0x1f
 5c0:	80001fe0 	lb	zero,8160(zero)
 5c4:	40000000 	mfc0	zero,c0_index
 5c8:	fffffffc 	sdc3	$31,-4(ra)
	...
 5d4:	00000010 	mfhi	zero
 5d8:	0000001e 	0x1e
 5dc:	0000001f 	0x1f
 5e0:	80002008 	lb	zero,8200(zero)
 5e4:	40000000 	mfc0	zero,c0_index
 5e8:	fffffffc 	sdc3	$31,-4(ra)
	...
 5f4:	00000010 	mfhi	zero
 5f8:	0000001e 	0x1e
 5fc:	0000001f 	0x1f
 600:	80002030 	lb	zero,8240(zero)
 604:	40000000 	mfc0	zero,c0_index
 608:	fffffffc 	sdc3	$31,-4(ra)
	...
 614:	00000010 	mfhi	zero
 618:	0000001e 	0x1e
 61c:	0000001f 	0x1f
 620:	80002058 	lb	zero,8280(zero)
 624:	c0000000 	ll	zero,0(zero)
 628:	fffffffc 	sdc3	$31,-4(ra)
	...
 634:	00000018 	mult	zero,zero
 638:	0000001e 	0x1e
 63c:	0000001f 	0x1f
 640:	8000208c 	lb	zero,8332(zero)
 644:	c0000000 	ll	zero,0(zero)
 648:	fffffffc 	sdc3	$31,-4(ra)
	...
 654:	00000018 	mult	zero,zero
 658:	0000001e 	0x1e
 65c:	0000001f 	0x1f
 660:	800020c0 	lb	zero,8384(zero)
 664:	c0000000 	ll	zero,0(zero)
 668:	fffffffc 	sdc3	$31,-4(ra)
	...
 674:	00000018 	mult	zero,zero
 678:	0000001e 	0x1e
 67c:	0000001f 	0x1f
 680:	800020f4 	lb	zero,8436(zero)
 684:	c0000000 	ll	zero,0(zero)
 688:	fffffffc 	sdc3	$31,-4(ra)
	...
 694:	00000018 	mult	zero,zero
 698:	0000001e 	0x1e
 69c:	0000001f 	0x1f
 6a0:	80002128 	lb	zero,8488(zero)
 6a4:	c0000000 	ll	zero,0(zero)
 6a8:	fffffffc 	sdc3	$31,-4(ra)
	...
 6b4:	00000018 	mult	zero,zero
 6b8:	0000001e 	0x1e
 6bc:	0000001f 	0x1f
 6c0:	8000215c 	lb	zero,8540(zero)
 6c4:	c0000000 	ll	zero,0(zero)
 6c8:	fffffffc 	sdc3	$31,-4(ra)
	...
 6d4:	00000018 	mult	zero,zero
 6d8:	0000001e 	0x1e
 6dc:	0000001f 	0x1f
 6e0:	80002190 	lb	zero,8592(zero)
 6e4:	c0000000 	ll	zero,0(zero)
 6e8:	fffffffc 	sdc3	$31,-4(ra)
	...
 6f4:	00000018 	mult	zero,zero
 6f8:	0000001e 	0x1e
 6fc:	0000001f 	0x1f
 700:	800021c4 	lb	zero,8644(zero)
 704:	c0000000 	ll	zero,0(zero)
 708:	fffffffc 	sdc3	$31,-4(ra)
	...
 714:	00000018 	mult	zero,zero
 718:	0000001e 	0x1e
 71c:	0000001f 	0x1f
 720:	800021f8 	lb	zero,8696(zero)
 724:	c0000000 	ll	zero,0(zero)
 728:	fffffffc 	sdc3	$31,-4(ra)
	...
 734:	00000018 	mult	zero,zero
 738:	0000001e 	0x1e
 73c:	0000001f 	0x1f

Disassembly of section .comment:

00000000 <.comment>:
   0:	43434700 	c0	0x1434700
   4:	4728203a 	c1	0x128203a
   8:	2029554e 	addi	t1,at,21838
   c:	2e332e34 	sltiu	s3,s1,11828
  10:	47000033 	c1	0x1000033
  14:	203a4343 	addi	k0,at,17219
  18:	554e4728 	bnel	t2,t6,11cbc <seg_code_base-0x3ee344>
  1c:	2e342029 	sltiu	s4,s1,8233
  20:	00332e33 	tltu	at,s3,0xb8
  24:	43434700 	c0	0x1434700
  28:	4728203a 	c1	0x128203a
  2c:	2029554e 	addi	t1,at,21838
  30:	2e332e34 	sltiu	s3,s1,11828
  34:	47000033 	c1	0x1000033
  38:	203a4343 	addi	k0,at,17219
  3c:	554e4728 	bnel	t2,t6,11ce0 <seg_code_base-0x3ee320>
  40:	2e342029 	sltiu	s4,s1,8233
  44:	00332e33 	tltu	at,s3,0xb8
  48:	43434700 	c0	0x1434700
  4c:	4728203a 	c1	0x128203a
  50:	2029554e 	addi	t1,at,21838
  54:	2e332e34 	sltiu	s3,s1,11828
  58:	47000033 	c1	0x1000033
  5c:	203a4343 	addi	k0,at,17219
  60:	554e4728 	bnel	t2,t6,11d04 <seg_code_base-0x3ee2fc>
  64:	2e342029 	sltiu	s4,s1,8233
  68:	00332e33 	tltu	at,s3,0xb8

Disassembly of section .gnu.attributes:

00000000 <.gnu.attributes>:
   0:	00000f41 	0xf41
   4:	756e6700 	jalx	5b99c00 <seg_stack_base+0x3b99c00>
   8:	00070100 	sll	zero,a3,0x4
   c:	01040000 	0x1040000
